ccopy_reg
_reconstructor
p1
(cdomination.core
ReplayData
p2
c__builtin__
object
p3
NtRp4
(dp5
S'red_name'
p6
S'default_agent (default_agent.py)'
p7
sS'settings'
p8
g1
(cdomination.core
Settings
p9
g3
NtRp10
(dp11
S'max_turn'
p12
F1.0471975511965976
sS'max_range'
p13
I60
sS'end_condition'
p14
I1
sS'field_known'
p15
I01
sS'think_time'
p16
F0.050000000000000003
sS'tilesize'
p17
I16
sS'spawn_time'
p18
I10
sS'capture_mode'
p19
I2
sS'max_speed'
p20
I40
sS'agent_type'
p21
S'tank'
p22
sS'ammo_amount'
p23
I3
sS'ammo_rate'
p24
I20
sS'max_steps'
p25
I150
sS'max_score'
p26
I400
sS'max_see'
p27
I100
sbsS'blue_name'
p28
S'comparison_agent (comparison_agent.py)'
p29
sS'field'
p30
g1
(cdomination.core
Field
p31
g3
NtRp32
(dp33
S'width'
p34
I30
sS'tiles'
p35
(lp36
(lp37
S'W'
aS'W'
aS'W'
aS'W'
aS'W'
aS'W'
aS'W'
aS'W'
aS'W'
aS'W'
aS'W'
aS'W'
aS'W'
aS'W'
aS'W'
aS'W'
aS'W'
aS'W'
aS'W'
aS'W'
aS'W'
aS'W'
aS'W'
aS'W'
aS'W'
aS'W'
aS'W'
aS'W'
aS'W'
aS'W'
aa(lp38
S'W'
aS'W'
aS'W'
aS'W'
aS'W'
aS'W'
aS'W'
aS'W'
aS'W'
aS'W'
aS'W'
aS'W'
aS'_'
aS'_'
aS'_'
aS'_'
aS'_'
aS'_'
aS'W'
aS'W'
aS'W'
aS'W'
aS'W'
aS'W'
aS'W'
aS'W'
aS'W'
aS'W'
aS'W'
aS'W'
aa(lp39
S'W'
aS'W'
aS'W'
aS'W'
aS'W'
aS'W'
aS'W'
aS'W'
aS'W'
aS'W'
aS'W'
aS'W'
aS'_'
aS'_'
aS'A'
aS'_'
aS'_'
aS'_'
aS'W'
aS'W'
aS'W'
aS'W'
aS'W'
aS'W'
aS'W'
aS'W'
aS'W'
aS'W'
aS'W'
aS'W'
aa(lp40
S'W'
aS'W'
aS'W'
aS'W'
aS'W'
aS'W'
aS'W'
aS'W'
aS'W'
aS'W'
aS'W'
aS'W'
aS'_'
aS'_'
aS'_'
aS'_'
aS'_'
aS'_'
aS'W'
aS'W'
aS'W'
aS'W'
aS'W'
aS'W'
aS'W'
aS'W'
aS'W'
aS'W'
aS'W'
aS'W'
aa(lp41
S'W'
aS'_'
aS'_'
aS'_'
aS'_'
aS'_'
aS'_'
aS'_'
aS'_'
aS'_'
aS'_'
aS'_'
aS'_'
aS'_'
aS'_'
aS'_'
aS'_'
aS'_'
aS'_'
aS'_'
aS'_'
aS'_'
aS'_'
aS'_'
aS'_'
aS'_'
aS'_'
aS'_'
aS'_'
aS'W'
aa(lp42
S'W'
aS'_'
aS'A'
aS'_'
aS'_'
aS'_'
aS'_'
aS'_'
aS'_'
aS'_'
aS'_'
aS'_'
aS'_'
aS'_'
aS'_'
aS'_'
aS'_'
aS'_'
aS'_'
aS'_'
aS'_'
aS'_'
aS'_'
aS'_'
aS'_'
aS'_'
aS'_'
aS'A'
aS'_'
aS'W'
aa(lp43
S'W'
aS'W'
aS'W'
aS'W'
aS'W'
aS'_'
aS'_'
aS'_'
aS'_'
aS'_'
aS'_'
aS'_'
aS'_'
aS'_'
aS'_'
aS'_'
aS'_'
aS'_'
aS'_'
aS'_'
aS'_'
aS'_'
aS'_'
aS'_'
aS'_'
aS'W'
aS'W'
aS'W'
aS'W'
aS'W'
aa(lp44
S'W'
aS'W'
aS'W'
aS'W'
aS'W'
aS'_'
aS'_'
aS'_'
aS'_'
aS'C'
aS'_'
aS'_'
aS'A'
aS'_'
aS'_'
aS'_'
aS'_'
aS'A'
aS'_'
aS'_'
aS'C'
aS'_'
aS'_'
aS'_'
aS'_'
aS'W'
aS'W'
aS'W'
aS'W'
aS'W'
aa(lp45
S'W'
aS'W'
aS'W'
aS'W'
aS'W'
aS'_'
aS'_'
aS'_'
aS'_'
aS'_'
aS'_'
aS'_'
aS'_'
aS'_'
aS'_'
aS'_'
aS'_'
aS'_'
aS'_'
aS'_'
aS'_'
aS'_'
aS'_'
aS'_'
aS'_'
aS'W'
aS'W'
aS'W'
aS'W'
aS'W'
aa(lp46
S'W'
aS'W'
aS'W'
aS'W'
aS'W'
aS'_'
aS'_'
aS'_'
aS'_'
aS'_'
aS'_'
aS'_'
aS'_'
aS'_'
aS'_'
aS'_'
aS'_'
aS'_'
aS'_'
aS'_'
aS'_'
aS'_'
aS'_'
aS'_'
aS'_'
aS'W'
aS'W'
aS'W'
aS'W'
aS'W'
aa(lp47
S'W'
aS'R'
aS'_'
aS'_'
aS'_'
aS'_'
aS'_'
aS'_'
aS'_'
aS'_'
aS'_'
aS'_'
aS'_'
aS'_'
aS'_'
aS'_'
aS'_'
aS'_'
aS'_'
aS'_'
aS'_'
aS'_'
aS'_'
aS'_'
aS'_'
aS'_'
aS'_'
aS'_'
aS'B'
aS'W'
aa(lp48
S'W'
aS'_'
aS'_'
aS'_'
aS'_'
aS'_'
aS'_'
aS'_'
aS'_'
aS'_'
aS'_'
aS'_'
aS'_'
aS'_'
aS'_'
aS'_'
aS'_'
aS'_'
aS'_'
aS'_'
aS'_'
aS'_'
aS'_'
aS'_'
aS'_'
aS'_'
aS'_'
aS'_'
aS'_'
aS'W'
aa(lp49
S'W'
aS'_'
aS'_'
aS'_'
aS'_'
aS'_'
aS'_'
aS'_'
aS'_'
aS'_'
aS'_'
aS'_'
aS'_'
aS'_'
aS'_'
aS'_'
aS'_'
aS'_'
aS'_'
aS'_'
aS'_'
aS'_'
aS'_'
aS'_'
aS'_'
aS'_'
aS'_'
aS'_'
aS'_'
aS'W'
aa(lp50
S'W'
aS'_'
aS'_'
aS'_'
aS'_'
aS'_'
aS'_'
aS'_'
aS'_'
aS'_'
aS'_'
aS'_'
aS'_'
aS'_'
aS'_'
aS'_'
aS'_'
aS'_'
aS'_'
aS'_'
aS'_'
aS'_'
aS'_'
aS'_'
aS'_'
aS'_'
aS'_'
aS'_'
aS'_'
aS'W'
aa(lp51
S'W'
aS'W'
aS'W'
aS'W'
aS'W'
aS'W'
aS'W'
aS'W'
aS'W'
aS'W'
aS'W'
aS'W'
aS'W'
aS'W'
aS'W'
aS'W'
aS'W'
aS'W'
aS'W'
aS'W'
aS'W'
aS'W'
aS'W'
aS'W'
aS'W'
aS'W'
aS'W'
aS'W'
aS'W'
aS'W'
aasg17
I16
sS'_unpacked'
p52
NsS'height'
p53
I15
sbsS'actions_red'
p54
(lp55
(lp56
(F-0.015871682991789982
F63.007936008093459
I00
tp57
a(F0.015871682991789982
F24
I00
tp58
a(F-1.5707963267948966
F78
I00
tp59
a(F-0.95895205075060153
F47.423622805517503
I00
tp60
a(F-0.97984822366556479
F51.623637996561229
I00
tp61
a(F-0.21801363797298734
F16.031219541881399
I00
tp62
a(F-2.9685166224199397
F289.77232442039735
I00
tp63
a(F-1.9342493850385194
F307.46707140765494
I00
tp64
a(F-0.87953523357187002
F285.58011135231391
I00
tp65
a(F0.017093326186725211
F245.8373446000424
I00
tp66
a(F2.1812745947659078
F13.45362404707371
I00
tp67
a(F2.7271626720563722
F23.345235059857504
I00
tp68
a(F2.8174075985726406
F50.596442562694072
I00
tp69
a(F2.2675527637228656
F62.968245965724662
I00
tp70
a(F1.854949524010836
F51.35172830587107
I00
tp71
a(F1.1785348135197449
F27.892651361962706
I00
tp72
a(F-0.15217871848260511
F67.029844099475568
I00
tp73
a(F-0.0071782312068204845
F27.018512172212592
I00
tp74
a(F-0.71713821409325007
F45.276925690687087
I00
tp75
a(F3.110352820159525
F108.89444430272832
I00
tp76
a(F2.334102119301348
F132.09844813622905
I00
tp77
a(F1.5946726626795291
F126.69648771769484
I00
tp78
a(F0.76468425699890652
F95.005263012108969
I00
tp79
a(F0.0076538880412524435
F55.009090157900268
I00
tp80
a(F-0.018179815072977945
F15
I00
tp81
a(F-3.1234128385168152
F55.009090157900268
I00
tp82
a(F-0.015871682991789982
F63.007936008093459
I00
tp83
a(F-0.015871682991789982
F63.007936008093459
I00
tp84
a(F-0.015871682991789982
F63.007936008093459
I00
tp85
a(F-0.015871682991789982
F63.007936008093459
I00
tp86
a(F-0.015871682991789982
F63.007936008093459
I00
tp87
a(F-0.015871682991789982
F63.007936008093459
I00
tp88
a(F-0.015871682991789982
F63.007936008093459
I00
tp89
a(F-0.015871682991789982
F63.007936008093459
I00
tp90
a(F-0.015871682991789982
F63.007936008093459
I00
tp91
a(F-0.015871682991789982
F63.007936008093459
I00
tp92
a(F-0.015871682991789982
F63.007936008093459
I00
tp93
a(F0.015871682991789982
F24
I00
tp94
a(F-1.5707963267948966
F78
I00
tp95
a(F-0.95895205075060153
F47.423622805517503
I00
tp96
a(F-0.97984822366556479
F51.623637996561229
I00
tp97
a(F-0.21801363797298734
F16.031219541881399
I00
tp98
a(F-3.0579004575697746
F47.010637094172637
I00
tp99
a(F-2.0473596941778331
F65.007691852580024
I00
tp100
a(F-1.3519525750188599
F13.928388277184119
I00
tp101
a(F-0.015871682991789982
F63.007936008093459
I00
tp102
a(F-0.015871682991789982
F63.007936008093459
I00
tp103
a(F-0.015871682991789982
F63.007936008093459
I00
tp104
a(F-0.015871682991789982
F63.007936008093459
I00
tp105
a(F-0.015871682991789982
F63.007936008093459
I00
tp106
a(F-0.015871682991789982
F63.007936008093459
I00
tp107
a(F-0.015871682991789982
F63.007936008093459
I00
tp108
a(F-0.015871682991789982
F63.007936008093459
I00
tp109
a(F0.015150355874769872
F66.007575322836999
I00
tp110
a(F0.030293759918774921
F66.030296076876709
I00
tp111
a(F0.030293759918774921
F66.030296076876709
I00
tp112
a(F-0.015150355874769872
F66.007575322836999
I00
tp113
a(F-0.060532019782107316
F66.121101019266163
I00
tp114
a(F-0.015150355874769872
F66.007575322836999
I00
tp115
a(F0.030759526070469168
F65.030761951556428
I00
tp116
a(F0.030759526070469168
F65.030761951556428
I00
tp117
a(F0.030293759918774921
F66.030296076876709
I00
tp118
a(F0.030293759918774921
F66.030296076876709
I00
tp119
a(F0.015150355874769872
F66.007575322836999
I00
tp120
a(F0.015150355874769872
F66.007575322836999
I00
tp121
a(F0.015150355874769872
F66.007575322836999
I00
tp122
a(F0.015150355874769872
F66.007575322836999
I00
tp123
a(F0.015150355874769872
F66.007575322836999
I00
tp124
a(F0.015150355874769872
F66.007575322836999
I00
tp125
a(F0.015150355874769872
F66.007575322836999
I00
tp126
a(F0.015150355874769872
F66.007575322836999
I00
tp127
a(F0.015150355874769872
F66.007575322836999
I00
tp128
a(F0.015150355874769872
F66.007575322836999
I00
tp129
a(F0.023292234146417901
F26.019223662515376
I00
tp130
a(F-0.43696503568760825
F123.69316876852982
I00
tp131
a(F-0.015871682991789982
F63.007936008093459
I00
tp132
a(F-0.015871682991789982
F63.007936008093459
I00
tp133
a(F0.030293759918774921
F66.030296076876709
I00
tp134
a(F0.015150355874769872
F66.007575322836999
I00
tp135
a(F0.030293759918774921
F66.030296076876709
I00
tp136
a(F0.030293759918774921
F66.030296076876709
I00
tp137
a(F0.030293759918774921
F66.030296076876709
I00
tp138
a(F0.030293759918774921
F66.030296076876709
I00
tp139
a(F0.030293759918774921
F66.030296076876709
I00
tp140
a(F0.030293759918774921
F66.030296076876709
I00
tp141
a(F0.030293759918774921
F66.030296076876709
I00
tp142
a(F0.030293759918774921
F66.030296076876709
I00
tp143
a(F0.030293759918774921
F66.030296076876709
I00
tp144
a(F0.030293759918774921
F66.030296076876709
I00
tp145
a(F-0.030293759918774921
F26
I00
tp146
a(F-1.5707963267948966
F78
I00
tp147
a(F-0.95895205075060153
F47.423622805517503
I00
tp148
a(F-0.97678778945619271
F50.635955604688654
I00
tp149
a(F-0.29120679448307563
F15.132745950421556
I00
tp150
a(F-2.8983839001192235
F289.77232442039735
I00
tp151
a(F-1.8631553094481155
F304.48152653322006
I00
tp152
a(F-0.80753069554769308
F280.60826787534256
I00
tp153
a(F0.67828284004521677
F11.313708498984761
I01
tp154
a(F-0.015871682991789982
F63.007936008093459
I00
tp155
a(F-0.015871682991789982
F63.007936008093459
I00
tp156
a(F-0.015871682991789982
F63.007936008093459
I00
tp157
a(F-0.015871682991789982
F63.007936008093459
I00
tp158
a(F-0.015871682991789982
F63.007936008093459
I00
tp159
a(F-0.015871682991789982
F63.007936008093459
I00
tp160
a(F-0.015871682991789982
F63.007936008093459
I00
tp161
a(F-0.015871682991789982
F63.007936008093459
I00
tp162
a(F-0.015871682991789982
F63.007936008093459
I00
tp163
a(F-0.015871682991789982
F63.007936008093459
I00
tp164
a(F-0.015871682991789982
F63.007936008093459
I00
tp165
aasS'version'
p166
S'1.6.2'
p167
sS'actions_blue'
p168
(lp169
(lp170
(F0.015871682991789982
F63.007936008093459
I00
tp171
a(F-0.015871682991789982
F23
I00
tp172
a(F0.39416258427027406
F122.38463955905577
I00
tp173
a(F0.0043598613961459698
F82.462112512353215
I00
tp174
a(F0.43601645214704821
F129.5569372901351
I00
tp175
a(F-0.98555424073482811
F93.059120993054734
I00
tp176
a(F-0.0016339854739051418
F52.611785751863621
I00
tp177
a(F0.11987418399118921
F61.032778078668514
I00
tp178
a(F0.032775144404075363
F21
I00
tp179
a(F0.41549209594089032
F74.323616704248181
I00
tp180
a(F1.888119332640513
F13.45362404707371
I00
tp181
a(F2.4340074099309783
F23.345235059857504
I00
tp182
a(F2.5242523364472467
F50.596442562694072
I00
tp183
a(F2.1829109813610756
F61.911226768656427
I00
tp184
a(F1.8183430635436428
F57.55866572463264
I00
tp185
a(F1.5392987893445111
F40.607881008493905
I00
tp186
a(F1.8300451730775595
F19.209372712298546
I00
tp187
a(F1.0681770420630974
F85.445889310135925
I00
tp188
a(F0.031655241853954852
F46.043457732885351
I00
tp189
a(F0.47569521885499189
F32.249030993194197
I00
tp190
a(F-0.62657406785117864
F41.036569057366385
I00
tp191
a(F1.5672452053584314
F68.622153857191051
I00
tp192
a(F1.0419708961913301
F39.05124837953327
I00
tp193
a(F1.4303655467997451
F74.094534211370814
I00
tp194
a(F0.75615571740320853
F40
I00
tp195
a(F0.018179815072977945
F55.009090157900268
I01
tp196
a(F-0.018179815072977945
F15
I00
tp197
a(F-3.1415926535897931
F0
I00
tp198
a(F-2.0943951023931957
F0
I00
tp199
a(F-1.0471975511965983
F176
I00
tp200
a(F-8.8817841970012523e-16
F136
I00
tp201
a(F0
F96
I00
tp202
a(F0
F56
I00
tp203
a(F0
F16
I00
tp204
a(F-3.1415926535897931
F176
I00
tp205
a(F-2.2661552537213989
F198.92712233378333
I00
tp206
a(F-1.3239957098285888
F182.96447742663054
I00
tp207
a(F-0.35877067027057308
F145.24806367039804
I00
tp208
a(F0.0067263559551551388
F104.4030650891055
I00
tp209
a(F-0.0085216861626884466
F65.192024052026483
I00
tp210
a(F-0.012421721321954848
F24.698178070456937
I00
tp211
a(F0.70408379850419323
F101.51354589413178
I00
tp212
a(F0.00096339083875296438
F61.351446600711867
I00
tp213
a(F-0.1280414879503371
F29.614185789921695
I00
tp214
a(F-0.57119181341076697
F13.928388277184119
I01
tp215
a(F-2.7976704425820369
F43.011626335213137
I00
tp216
a(F-1.7476265992615148
F49.010203019371382
I00
tp217
a(F-0.73552222262409606
F18.027756377319946
I00
tp218
a(F1.6262948320406139
F78
I00
tp219
a(F1.033816555664985
F50.089919145472777
I00
tp220
a(F-0.03649494524174024
F9.8488578017961039
I00
tp221
a(F1.1367003142238774
F63.007936008093459
I00
tp222
a(F0.2350769831749826
F23.194827009486403
I01
tp223
a(F0.21906846642799405
F11.704699910719626
I01
tp224
a(F0.07785648954296942
F12.083045973594572
I01
tp225
a(F-0.07785648954296942
F11.704699910719626
I01
tp226
a(F-0.61502305273483238
F11.401754250991379
I01
tp227
a(F-0.23309467252920424
F12.529964086141668
I01
tp228
a(F0.67920022147260806
F11.180339887498949
I01
tp229
a(F0.67211282738079392
F10.63014581273465
I01
tp230
a(F0
F10.63014581273465
I01
tp231
a(F-0.12532398649154652
F12.041594578792296
I01
tp232
a(F2.3274549721056763
F57.218878003679869
I00
tp233
a(F1.3885830817476865
F48.010415536631214
I00
tp234
a(F0.4202238630060342
F10.04987562112089
I00
tp235
a(F-1.6704649792860584
F77
I00
tp236
a(F-1.0957643636065248
F50.537115073973112
I00
tp237
a(F-0.9637553864252757
F54.918120870983927
I00
tp238
a(F-0.27377070446322982
F22.090722034374522
I00
tp239
a(F-3.0296593803649867
F47.010637094172637
I00
tp240
a(F-2.0193589438129274
F64.007812023221035
I00
tp241
a(F-0.98092307316857141
F41.012193308819754
I00
tp242
a(F1.5823619254947143
F78.006409993025571
I00
tp243
a(F0.97461167789789371
F48.332183894378289
I00
tp244
a(F0.03702011587393006
F11.180339887498949
I01
tp245
a(F1.1071487177940904
F62
I00
tp246
a(F0.14668950527347846
F23.086792761230392
I01
tp247
a(F0.33988915445089063
F12.083045973594572
I01
tp248
a(F2.5476259060483848
F300.19327107715122
I00
tp249
a(F1.6862840113343287
F54.009258465563107
I00
tp250
a(F0.4474166255222789
F266.99250925821872
I00
tp251
a(F-0.23427641935373211
F103.46980235798269
I00
tp252
a(F0.00045906653240379569
F63.158530698552511
I00
tp253
a(F0.0020789990836878047
F22.847319317591726
I00
tp254
a(F-2.7367008673047097
F48
I00
tp255
a(F-2.3330044249013966
F65
I00
tp256
a(F-1.8325957145940457
F53.851648071345039
I00
tp257
a(F-1.5946825679558294
F38.483762809787713
I00
tp258
a(F-1.8314003707122763
F21.213203435596427
I00
tp259
a(F-1.9681234285795475
F16.492422502470642
I00
tp260
a(F3.0934184464951455
F84.528101836016646
I00
tp261
a(F2.3794928659255223
F108.77959367454909
I00
tp262
a(F1.697068000608545
F107.20074626605917
I00
tp263
a(F0.96483158339947117
F79.075912893876861
I00
tp264
a(F0.0067894204091185628
F39.11521443121589
I00
tp265
a(F1.0040671092713902
F78
I00
tp266
a(F0
F38
I00
tp267
a(F-0.78539816339744828
F11.313708498984761
I01
tp268
a(F0.015871682991789982
F63.007936008093459
I00
tp269
a(F0.015871682991789982
F63.007936008093459
I00
tp270
a(F0.015871682991789982
F63.007936008093459
I00
tp271
a(F0.015871682991789982
F63.007936008093459
I00
tp272
a(F0.015871682991789982
F63.007936008093459
I00
tp273
a(F0.015871682991789982
F63.007936008093459
I00
tp274
a(F0.015871682991789982
F63.007936008093459
I00
tp275
a(F0.015871682991789982
F63.007936008093459
I00
tp276
a(F0.015871682991789982
F63.007936008093459
I00
tp277
a(F0.015871682991789982
F63.007936008093459
I00
tp278
a(F0.015871682991789982
F63.007936008093459
I00
tp279
aasb.