ccopy_reg
_reconstructor
p1
(cdomination.core
ReplayData
p2
c__builtin__
object
p3
NtRp4
(dp5
S'red_name'
p6
S'default_agent (default_agent.py)'
p7
sS'settings'
p8
g1
(cdomination.core
Settings
p9
g3
NtRp10
(dp11
S'max_turn'
p12
F1.0471975511965976
sS'max_range'
p13
I60
sS'end_condition'
p14
I1
sS'field_known'
p15
I01
sS'think_time'
p16
F0.050000000000000003
sS'tilesize'
p17
I16
sS'spawn_time'
p18
I10
sS'capture_mode'
p19
I2
sS'max_speed'
p20
I40
sS'agent_type'
p21
S'tank'
p22
sS'ammo_amount'
p23
I3
sS'ammo_rate'
p24
I20
sS'max_steps'
p25
I150
sS'max_score'
p26
I400
sS'max_see'
p27
I100
sbsS'blue_name'
p28
S'comparison_agent (comparison_agent.py)'
p29
sS'field'
p30
g1
(cdomination.core
Field
p31
g3
NtRp32
(dp33
S'width'
p34
I60
sS'tiles'
p35
(lp36
(lp37
S'W'
aS'W'
aS'W'
aS'W'
aS'W'
aS'W'
aS'W'
aS'W'
aS'W'
aS'W'
aS'W'
aS'W'
aS'W'
aS'W'
aS'W'
aS'W'
aS'W'
aS'W'
aS'W'
aS'W'
aS'W'
aS'W'
aS'W'
aS'W'
aS'W'
aS'W'
aS'W'
aS'W'
aS'W'
aS'W'
aS'W'
aS'W'
aS'W'
aS'W'
aS'W'
aS'W'
aS'W'
aS'W'
aS'W'
aS'W'
aS'W'
aS'W'
aS'W'
aS'W'
aS'W'
aS'W'
aS'W'
aS'W'
aS'W'
aS'W'
aS'W'
aS'W'
aS'W'
aS'W'
aS'W'
aS'W'
aS'W'
aS'W'
aS'W'
aS'W'
aa(lp38
S'W'
aS'_'
aS'A'
aS'_'
aS'_'
aS'_'
aS'_'
aS'_'
aS'_'
aS'_'
aS'_'
aS'_'
aS'W'
aS'W'
aS'W'
aS'W'
aS'W'
aS'W'
aS'W'
aS'W'
aS'W'
aS'W'
aS'W'
aS'_'
aS'_'
aS'_'
aS'_'
aS'_'
aS'_'
aS'_'
aS'_'
aS'_'
aS'_'
aS'_'
aS'_'
aS'_'
aS'_'
aS'W'
aS'W'
aS'W'
aS'W'
aS'W'
aS'W'
aS'W'
aS'W'
aS'W'
aS'W'
aS'W'
aS'_'
aS'_'
aS'_'
aS'_'
aS'_'
aS'_'
aS'_'
aS'_'
aS'_'
aS'A'
aS'_'
aS'W'
aa(lp39
S'W'
aS'_'
aS'_'
aS'_'
aS'_'
aS'A'
aS'_'
aS'_'
aS'_'
aS'_'
aS'_'
aS'_'
aS'W'
aS'W'
aS'W'
aS'W'
aS'W'
aS'W'
aS'W'
aS'W'
aS'W'
aS'W'
aS'W'
aS'_'
aS'_'
aS'_'
aS'_'
aS'_'
aS'_'
aS'_'
aS'_'
aS'_'
aS'_'
aS'_'
aS'_'
aS'_'
aS'_'
aS'W'
aS'W'
aS'W'
aS'W'
aS'W'
aS'W'
aS'W'
aS'W'
aS'W'
aS'W'
aS'W'
aS'_'
aS'_'
aS'_'
aS'_'
aS'_'
aS'_'
aS'A'
aS'_'
aS'_'
aS'_'
aS'_'
aS'W'
aa(lp40
S'W'
aS'_'
aS'_'
aS'_'
aS'_'
aS'_'
aS'_'
aS'_'
aS'_'
aS'_'
aS'_'
aS'_'
aS'_'
aS'W'
aS'W'
aS'W'
aS'W'
aS'W'
aS'W'
aS'W'
aS'W'
aS'W'
aS'W'
aS'_'
aS'_'
aS'_'
aS'_'
aS'_'
aS'_'
aS'_'
aS'_'
aS'_'
aS'_'
aS'_'
aS'_'
aS'_'
aS'_'
aS'W'
aS'W'
aS'W'
aS'W'
aS'W'
aS'W'
aS'W'
aS'W'
aS'W'
aS'W'
aS'_'
aS'_'
aS'_'
aS'_'
aS'_'
aS'_'
aS'_'
aS'_'
aS'_'
aS'_'
aS'_'
aS'_'
aS'W'
aa(lp41
S'W'
aS'_'
aS'_'
aS'_'
aS'_'
aS'_'
aS'_'
aS'_'
aS'_'
aS'C'
aS'_'
aS'C'
aS'_'
aS'_'
aS'_'
aS'_'
aS'_'
aS'_'
aS'_'
aS'_'
aS'_'
aS'_'
aS'_'
aS'_'
aS'_'
aS'_'
aS'_'
aS'_'
aS'_'
aS'_'
aS'_'
aS'_'
aS'_'
aS'_'
aS'_'
aS'_'
aS'_'
aS'_'
aS'_'
aS'_'
aS'_'
aS'_'
aS'_'
aS'_'
aS'_'
aS'_'
aS'_'
aS'_'
aS'C'
aS'_'
aS'C'
aS'_'
aS'_'
aS'_'
aS'_'
aS'_'
aS'_'
aS'_'
aS'_'
aS'W'
aa(lp42
S'W'
aS'_'
aS'A'
aS'_'
aS'_'
aS'_'
aS'_'
aS'_'
aS'_'
aS'_'
aS'_'
aS'_'
aS'_'
aS'_'
aS'_'
aS'_'
aS'_'
aS'_'
aS'_'
aS'_'
aS'_'
aS'_'
aS'_'
aS'_'
aS'_'
aS'_'
aS'_'
aS'_'
aS'_'
aS'_'
aS'_'
aS'_'
aS'_'
aS'_'
aS'_'
aS'_'
aS'_'
aS'_'
aS'_'
aS'_'
aS'_'
aS'_'
aS'_'
aS'_'
aS'_'
aS'_'
aS'_'
aS'_'
aS'_'
aS'_'
aS'_'
aS'_'
aS'_'
aS'_'
aS'_'
aS'_'
aS'_'
aS'A'
aS'_'
aS'W'
aa(lp43
S'W'
aS'_'
aS'_'
aS'_'
aS'_'
aS'_'
aS'W'
aS'W'
aS'W'
aS'W'
aS'W'
aS'_'
aS'W'
aS'W'
aS'W'
aS'W'
aS'_'
aS'_'
aS'_'
aS'A'
aS'_'
aS'_'
aS'_'
aS'_'
aS'_'
aS'_'
aS'_'
aS'A'
aS'_'
aS'_'
aS'_'
aS'_'
aS'A'
aS'_'
aS'_'
aS'_'
aS'_'
aS'_'
aS'_'
aS'_'
aS'A'
aS'_'
aS'_'
aS'_'
aS'W'
aS'W'
aS'W'
aS'W'
aS'_'
aS'W'
aS'W'
aS'W'
aS'W'
aS'W'
aS'_'
aS'_'
aS'_'
aS'_'
aS'_'
aS'W'
aa(lp44
S'W'
aS'_'
aS'_'
aS'_'
aS'_'
aS'_'
aS'W'
aS'W'
aS'W'
aS'W'
aS'W'
aS'_'
aS'W'
aS'W'
aS'W'
aS'W'
aS'_'
aS'_'
aS'_'
aS'_'
aS'_'
aS'_'
aS'_'
aS'_'
aS'_'
aS'_'
aS'_'
aS'_'
aS'_'
aS'_'
aS'_'
aS'_'
aS'_'
aS'_'
aS'_'
aS'_'
aS'_'
aS'_'
aS'_'
aS'_'
aS'_'
aS'_'
aS'_'
aS'_'
aS'W'
aS'W'
aS'W'
aS'W'
aS'_'
aS'W'
aS'W'
aS'W'
aS'W'
aS'W'
aS'_'
aS'_'
aS'_'
aS'_'
aS'_'
aS'W'
aa(lp45
S'W'
aS'R'
aS'R'
aS'R'
aS'_'
aS'_'
aS'W'
aS'W'
aS'W'
aS'W'
aS'W'
aS'_'
aS'W'
aS'W'
aS'W'
aS'W'
aS'_'
aS'_'
aS'_'
aS'_'
aS'_'
aS'_'
aS'_'
aS'_'
aS'_'
aS'_'
aS'_'
aS'_'
aS'_'
aS'_'
aS'_'
aS'_'
aS'_'
aS'_'
aS'_'
aS'_'
aS'_'
aS'_'
aS'_'
aS'_'
aS'_'
aS'_'
aS'_'
aS'_'
aS'W'
aS'W'
aS'W'
aS'W'
aS'_'
aS'W'
aS'W'
aS'W'
aS'W'
aS'W'
aS'_'
aS'_'
aS'B'
aS'B'
aS'B'
aS'W'
aa(lp46
S'W'
aS'R'
aS'R'
aS'R'
aS'_'
aS'_'
aS'W'
aS'W'
aS'W'
aS'W'
aS'W'
aS'_'
aS'W'
aS'W'
aS'W'
aS'W'
aS'_'
aS'_'
aS'_'
aS'_'
aS'_'
aS'_'
aS'_'
aS'_'
aS'_'
aS'_'
aS'_'
aS'_'
aS'_'
aS'_'
aS'_'
aS'_'
aS'_'
aS'_'
aS'_'
aS'_'
aS'_'
aS'_'
aS'_'
aS'_'
aS'_'
aS'_'
aS'_'
aS'_'
aS'W'
aS'W'
aS'W'
aS'W'
aS'_'
aS'W'
aS'W'
aS'W'
aS'W'
aS'W'
aS'_'
aS'_'
aS'B'
aS'B'
aS'B'
aS'W'
aa(lp47
S'W'
aS'R'
aS'R'
aS'R'
aS'_'
aS'_'
aS'_'
aS'_'
aS'_'
aS'_'
aS'_'
aS'_'
aS'W'
aS'W'
aS'W'
aS'W'
aS'_'
aS'_'
aS'_'
aS'_'
aS'_'
aS'_'
aS'_'
aS'_'
aS'_'
aS'_'
aS'_'
aS'_'
aS'_'
aS'_'
aS'_'
aS'_'
aS'_'
aS'_'
aS'_'
aS'_'
aS'_'
aS'_'
aS'_'
aS'_'
aS'_'
aS'_'
aS'_'
aS'_'
aS'W'
aS'W'
aS'W'
aS'W'
aS'_'
aS'_'
aS'_'
aS'_'
aS'_'
aS'_'
aS'_'
aS'_'
aS'B'
aS'B'
aS'B'
aS'W'
aa(lp48
S'W'
aS'A'
aS'_'
aS'_'
aS'_'
aS'_'
aS'_'
aS'_'
aS'_'
aS'_'
aS'_'
aS'_'
aS'W'
aS'W'
aS'W'
aS'W'
aS'_'
aS'_'
aS'_'
aS'_'
aS'_'
aS'_'
aS'_'
aS'A'
aS'_'
aS'_'
aS'_'
aS'_'
aS'_'
aS'_'
aS'_'
aS'_'
aS'_'
aS'_'
aS'_'
aS'_'
aS'A'
aS'_'
aS'_'
aS'_'
aS'_'
aS'_'
aS'_'
aS'_'
aS'W'
aS'W'
aS'W'
aS'W'
aS'_'
aS'_'
aS'_'
aS'_'
aS'_'
aS'_'
aS'_'
aS'_'
aS'_'
aS'_'
aS'A'
aS'W'
aa(lp49
S'W'
aS'A'
aS'_'
aS'_'
aS'_'
aS'_'
aS'W'
aS'W'
aS'W'
aS'W'
aS'W'
aS'W'
aS'W'
aS'W'
aS'W'
aS'W'
aS'W'
aS'W'
aS'W'
aS'W'
aS'W'
aS'W'
aS'_'
aS'_'
aS'W'
aS'W'
aS'W'
aS'W'
aS'_'
aS'_'
aS'_'
aS'_'
aS'W'
aS'W'
aS'W'
aS'W'
aS'_'
aS'_'
aS'W'
aS'W'
aS'W'
aS'W'
aS'W'
aS'W'
aS'W'
aS'W'
aS'W'
aS'W'
aS'W'
aS'W'
aS'W'
aS'W'
aS'W'
aS'W'
aS'_'
aS'_'
aS'_'
aS'_'
aS'A'
aS'W'
aa(lp50
S'W'
aS'_'
aS'_'
aS'_'
aS'_'
aS'_'
aS'W'
aS'W'
aS'W'
aS'W'
aS'W'
aS'W'
aS'W'
aS'W'
aS'W'
aS'W'
aS'W'
aS'W'
aS'W'
aS'W'
aS'W'
aS'W'
aS'_'
aS'_'
aS'W'
aS'W'
aS'W'
aS'W'
aS'_'
aS'_'
aS'_'
aS'_'
aS'W'
aS'W'
aS'W'
aS'W'
aS'_'
aS'_'
aS'W'
aS'W'
aS'W'
aS'W'
aS'W'
aS'W'
aS'W'
aS'W'
aS'W'
aS'W'
aS'W'
aS'W'
aS'W'
aS'W'
aS'W'
aS'W'
aS'_'
aS'_'
aS'_'
aS'_'
aS'_'
aS'W'
aa(lp51
S'W'
aS'_'
aS'_'
aS'_'
aS'_'
aS'_'
aS'W'
aS'W'
aS'W'
aS'W'
aS'W'
aS'W'
aS'W'
aS'W'
aS'W'
aS'W'
aS'W'
aS'W'
aS'W'
aS'W'
aS'W'
aS'W'
aS'_'
aS'_'
aS'W'
aS'W'
aS'W'
aS'W'
aS'_'
aS'_'
aS'_'
aS'_'
aS'W'
aS'W'
aS'W'
aS'W'
aS'_'
aS'_'
aS'W'
aS'W'
aS'W'
aS'W'
aS'W'
aS'W'
aS'W'
aS'W'
aS'W'
aS'W'
aS'W'
aS'W'
aS'W'
aS'W'
aS'W'
aS'W'
aS'_'
aS'_'
aS'_'
aS'_'
aS'_'
aS'W'
aa(lp52
S'W'
aS'_'
aS'_'
aS'_'
aS'_'
aS'_'
aS'W'
aS'W'
aS'W'
aS'W'
aS'W'
aS'W'
aS'W'
aS'W'
aS'W'
aS'W'
aS'W'
aS'W'
aS'W'
aS'W'
aS'W'
aS'W'
aS'_'
aS'_'
aS'_'
aS'_'
aS'_'
aS'_'
aS'_'
aS'_'
aS'_'
aS'_'
aS'_'
aS'_'
aS'_'
aS'_'
aS'_'
aS'_'
aS'W'
aS'W'
aS'W'
aS'W'
aS'W'
aS'W'
aS'W'
aS'W'
aS'W'
aS'W'
aS'W'
aS'W'
aS'W'
aS'W'
aS'W'
aS'W'
aS'_'
aS'_'
aS'_'
aS'_'
aS'_'
aS'W'
aa(lp53
S'W'
aS'_'
aS'_'
aS'_'
aS'_'
aS'_'
aS'_'
aS'_'
aS'_'
aS'_'
aS'_'
aS'_'
aS'W'
aS'W'
aS'W'
aS'W'
aS'_'
aS'_'
aS'_'
aS'_'
aS'_'
aS'_'
aS'_'
aS'_'
aS'_'
aS'_'
aS'_'
aS'_'
aS'_'
aS'_'
aS'_'
aS'_'
aS'_'
aS'_'
aS'_'
aS'_'
aS'_'
aS'_'
aS'_'
aS'_'
aS'_'
aS'_'
aS'_'
aS'_'
aS'W'
aS'W'
aS'W'
aS'W'
aS'_'
aS'_'
aS'_'
aS'_'
aS'_'
aS'_'
aS'_'
aS'_'
aS'_'
aS'_'
aS'_'
aS'W'
aa(lp54
S'W'
aS'_'
aS'_'
aS'_'
aS'_'
aS'_'
aS'_'
aS'_'
aS'_'
aS'_'
aS'_'
aS'_'
aS'W'
aS'W'
aS'W'
aS'W'
aS'_'
aS'_'
aS'_'
aS'_'
aS'_'
aS'_'
aS'_'
aS'_'
aS'_'
aS'_'
aS'_'
aS'_'
aS'A'
aS'C'
aS'_'
aS'A'
aS'_'
aS'_'
aS'_'
aS'_'
aS'_'
aS'_'
aS'_'
aS'_'
aS'_'
aS'_'
aS'_'
aS'_'
aS'W'
aS'W'
aS'W'
aS'W'
aS'_'
aS'_'
aS'_'
aS'_'
aS'_'
aS'_'
aS'_'
aS'_'
aS'_'
aS'_'
aS'_'
aS'W'
aa(lp55
S'W'
aS'W'
aS'W'
aS'W'
aS'W'
aS'W'
aS'_'
aS'_'
aS'_'
aS'_'
aS'_'
aS'_'
aS'W'
aS'W'
aS'W'
aS'W'
aS'W'
aS'W'
aS'W'
aS'W'
aS'W'
aS'W'
aS'W'
aS'W'
aS'W'
aS'W'
aS'W'
aS'_'
aS'_'
aS'_'
aS'_'
aS'_'
aS'_'
aS'W'
aS'W'
aS'W'
aS'W'
aS'W'
aS'W'
aS'W'
aS'W'
aS'W'
aS'W'
aS'W'
aS'W'
aS'W'
aS'W'
aS'W'
aS'_'
aS'_'
aS'_'
aS'_'
aS'_'
aS'_'
aS'W'
aS'W'
aS'W'
aS'W'
aS'W'
aS'W'
aa(lp56
S'W'
aS'W'
aS'W'
aS'W'
aS'W'
aS'W'
aS'_'
aS'_'
aS'_'
aS'_'
aS'_'
aS'_'
aS'W'
aS'W'
aS'W'
aS'W'
aS'W'
aS'W'
aS'W'
aS'W'
aS'W'
aS'W'
aS'W'
aS'W'
aS'W'
aS'W'
aS'W'
aS'_'
aS'_'
aS'_'
aS'_'
aS'_'
aS'_'
aS'W'
aS'W'
aS'W'
aS'W'
aS'W'
aS'W'
aS'W'
aS'W'
aS'W'
aS'W'
aS'W'
aS'W'
aS'W'
aS'W'
aS'W'
aS'_'
aS'_'
aS'_'
aS'_'
aS'_'
aS'_'
aS'W'
aS'W'
aS'W'
aS'W'
aS'W'
aS'W'
aa(lp57
S'W'
aS'W'
aS'W'
aS'W'
aS'W'
aS'W'
aS'_'
aS'_'
aS'_'
aS'_'
aS'C'
aS'_'
aS'W'
aS'W'
aS'W'
aS'W'
aS'W'
aS'W'
aS'W'
aS'W'
aS'W'
aS'W'
aS'W'
aS'W'
aS'W'
aS'W'
aS'W'
aS'_'
aS'_'
aS'_'
aS'_'
aS'_'
aS'_'
aS'W'
aS'W'
aS'W'
aS'W'
aS'W'
aS'W'
aS'W'
aS'W'
aS'W'
aS'W'
aS'W'
aS'W'
aS'W'
aS'W'
aS'W'
aS'_'
aS'C'
aS'_'
aS'_'
aS'_'
aS'_'
aS'W'
aS'W'
aS'W'
aS'W'
aS'W'
aS'W'
aa(lp58
S'W'
aS'W'
aS'W'
aS'W'
aS'W'
aS'W'
aS'_'
aS'_'
aS'_'
aS'_'
aS'_'
aS'_'
aS'W'
aS'W'
aS'W'
aS'W'
aS'W'
aS'W'
aS'W'
aS'W'
aS'W'
aS'W'
aS'W'
aS'W'
aS'W'
aS'W'
aS'W'
aS'_'
aS'_'
aS'_'
aS'_'
aS'_'
aS'_'
aS'W'
aS'W'
aS'W'
aS'W'
aS'W'
aS'W'
aS'W'
aS'W'
aS'W'
aS'W'
aS'W'
aS'W'
aS'W'
aS'W'
aS'W'
aS'_'
aS'_'
aS'_'
aS'_'
aS'_'
aS'_'
aS'W'
aS'W'
aS'W'
aS'W'
aS'W'
aS'W'
aa(lp59
S'W'
aS'_'
aS'_'
aS'_'
aS'_'
aS'_'
aS'_'
aS'_'
aS'_'
aS'_'
aS'_'
aS'_'
aS'_'
aS'_'
aS'_'
aS'_'
aS'_'
aS'_'
aS'W'
aS'W'
aS'W'
aS'W'
aS'_'
aS'_'
aS'_'
aS'_'
aS'_'
aS'_'
aS'_'
aS'_'
aS'_'
aS'_'
aS'_'
aS'_'
aS'_'
aS'_'
aS'_'
aS'_'
aS'W'
aS'W'
aS'W'
aS'W'
aS'_'
aS'_'
aS'_'
aS'_'
aS'_'
aS'_'
aS'_'
aS'_'
aS'_'
aS'_'
aS'_'
aS'_'
aS'_'
aS'_'
aS'_'
aS'_'
aS'_'
aS'W'
aa(lp60
S'W'
aS'_'
aS'_'
aS'_'
aS'_'
aS'_'
aS'_'
aS'_'
aS'_'
aS'_'
aS'_'
aS'_'
aS'_'
aS'_'
aS'_'
aS'_'
aS'_'
aS'_'
aS'W'
aS'W'
aS'W'
aS'W'
aS'_'
aS'_'
aS'_'
aS'_'
aS'_'
aS'_'
aS'_'
aS'_'
aS'_'
aS'_'
aS'_'
aS'_'
aS'_'
aS'_'
aS'_'
aS'_'
aS'W'
aS'W'
aS'W'
aS'W'
aS'_'
aS'_'
aS'_'
aS'_'
aS'_'
aS'_'
aS'_'
aS'_'
aS'_'
aS'_'
aS'_'
aS'_'
aS'_'
aS'_'
aS'_'
aS'_'
aS'_'
aS'W'
aa(lp61
S'W'
aS'_'
aS'_'
aS'_'
aS'_'
aS'_'
aS'_'
aS'_'
aS'_'
aS'_'
aS'_'
aS'_'
aS'W'
aS'W'
aS'W'
aS'W'
aS'W'
aS'W'
aS'W'
aS'_'
aS'_'
aS'_'
aS'_'
aS'_'
aS'_'
aS'_'
aS'_'
aS'_'
aS'_'
aS'_'
aS'_'
aS'_'
aS'_'
aS'_'
aS'_'
aS'_'
aS'_'
aS'_'
aS'_'
aS'_'
aS'_'
aS'W'
aS'W'
aS'W'
aS'W'
aS'W'
aS'W'
aS'W'
aS'_'
aS'_'
aS'_'
aS'_'
aS'_'
aS'_'
aS'_'
aS'_'
aS'_'
aS'_'
aS'_'
aS'W'
aa(lp62
S'W'
aS'_'
aS'_'
aS'_'
aS'_'
aS'_'
aS'_'
aS'_'
aS'_'
aS'_'
aS'_'
aS'_'
aS'W'
aS'W'
aS'W'
aS'W'
aS'W'
aS'W'
aS'W'
aS'_'
aS'_'
aS'_'
aS'_'
aS'_'
aS'_'
aS'_'
aS'_'
aS'_'
aS'_'
aS'_'
aS'_'
aS'_'
aS'_'
aS'_'
aS'_'
aS'_'
aS'_'
aS'_'
aS'_'
aS'_'
aS'_'
aS'W'
aS'W'
aS'W'
aS'W'
aS'W'
aS'W'
aS'W'
aS'_'
aS'_'
aS'_'
aS'_'
aS'_'
aS'_'
aS'_'
aS'_'
aS'_'
aS'_'
aS'_'
aS'W'
aa(lp63
S'W'
aS'_'
aS'_'
aS'_'
aS'_'
aS'_'
aS'_'
aS'_'
aS'_'
aS'_'
aS'_'
aS'_'
aS'W'
aS'W'
aS'W'
aS'W'
aS'W'
aS'W'
aS'W'
aS'_'
aS'_'
aS'_'
aS'_'
aS'_'
aS'_'
aS'_'
aS'_'
aS'_'
aS'_'
aS'_'
aS'_'
aS'_'
aS'_'
aS'_'
aS'_'
aS'_'
aS'_'
aS'_'
aS'_'
aS'_'
aS'_'
aS'W'
aS'W'
aS'W'
aS'W'
aS'W'
aS'W'
aS'W'
aS'_'
aS'_'
aS'_'
aS'_'
aS'_'
aS'_'
aS'_'
aS'_'
aS'_'
aS'_'
aS'_'
aS'W'
aa(lp64
S'W'
aS'_'
aS'_'
aS'_'
aS'_'
aS'_'
aS'_'
aS'_'
aS'_'
aS'_'
aS'_'
aS'_'
aS'W'
aS'W'
aS'W'
aS'W'
aS'W'
aS'W'
aS'W'
aS'A'
aS'_'
aS'A'
aS'_'
aS'_'
aS'_'
aS'_'
aS'_'
aS'_'
aS'_'
aS'_'
aS'_'
aS'_'
aS'_'
aS'_'
aS'_'
aS'_'
aS'_'
aS'_'
aS'A'
aS'_'
aS'A'
aS'W'
aS'W'
aS'W'
aS'W'
aS'W'
aS'W'
aS'W'
aS'_'
aS'_'
aS'_'
aS'_'
aS'_'
aS'_'
aS'_'
aS'_'
aS'_'
aS'_'
aS'_'
aS'W'
aa(lp65
S'W'
aS'_'
aS'_'
aS'_'
aS'_'
aS'_'
aS'_'
aS'_'
aS'_'
aS'_'
aS'_'
aS'_'
aS'_'
aS'_'
aS'_'
aS'_'
aS'_'
aS'_'
aS'_'
aS'_'
aS'_'
aS'_'
aS'_'
aS'A'
aS'_'
aS'_'
aS'_'
aS'_'
aS'_'
aS'_'
aS'_'
aS'_'
aS'_'
aS'_'
aS'_'
aS'_'
aS'A'
aS'_'
aS'_'
aS'_'
aS'_'
aS'_'
aS'_'
aS'_'
aS'_'
aS'_'
aS'_'
aS'_'
aS'_'
aS'_'
aS'_'
aS'_'
aS'_'
aS'_'
aS'_'
aS'_'
aS'_'
aS'_'
aS'_'
aS'W'
aa(lp66
S'W'
aS'W'
aS'W'
aS'W'
aS'W'
aS'W'
aS'W'
aS'W'
aS'W'
aS'W'
aS'W'
aS'W'
aS'W'
aS'W'
aS'W'
aS'W'
aS'W'
aS'W'
aS'W'
aS'W'
aS'W'
aS'W'
aS'W'
aS'W'
aS'W'
aS'W'
aS'W'
aS'W'
aS'W'
aS'W'
aS'W'
aS'W'
aS'W'
aS'W'
aS'W'
aS'W'
aS'W'
aS'W'
aS'W'
aS'W'
aS'W'
aS'W'
aS'W'
aS'W'
aS'W'
aS'W'
aS'W'
aS'W'
aS'W'
aS'W'
aS'W'
aS'W'
aS'W'
aS'W'
aS'W'
aS'W'
aS'W'
aS'W'
aS'W'
aS'W'
aasg17
I16
sS'_unpacked'
p67
NsS'height'
p68
I30
sbsS'actions_red'
p69
(lp70
(lp71
(F1.5707963267948966
F48
I00
tp72
a(F1.082198090941862
F37.735924528226413
I00
tp73
a(F2.7213973403814204
F106.56922632730333
I00
tp74
a(F1.7488892650260954
F101.6070863670443
I00
tp75
a(F0.80615372806788743
F64.560049566275893
I00
tp76
a(F-0.20226813718657066
F87.281154896117187
I00
tp77
a(F0.0064515233929682836
F46.173585522460783
I00
tp78
a(F1.7093347673329671
F49.244289008980523
I00
tp79
a(F1.6091343180507902
F20.615528128088304
I00
tp80
a(F-0.23324952726091031
F108.63240768757728
I00
tp81
a(F0.045766339119567512
F65.79513659838392
I00
tp82
a(F0.096292188113582089
F24.186773244895647
I00
tp83
a(F-0.19442820950880568
F106.56922632730333
I00
tp84
a(F0.044615752935908137
F66.483080554378645
I00
tp85
a(F0.4663015305831637
F126.73200069437868
I00
tp86
a(F0.015243000064123713
F86.452298986203942
I00
tp87
a(F0.072106711546885194
F46.400431032480725
I00
tp88
a(F-1.760188520056247
F95.587656106842587
I00
tp89
a(F-1.092880529384975
F69.289248805280025
I00
tp90
a(F-0.22267726819946265
F28.442925306655784
I00
tp91
a(F1.3206901448232484
F68.183575734923139
I00
tp92
a(F0.38391003540219248
F27.018512172212592
I00
tp93
a(F0.91110542216389945
F96.020831073262428
I00
tp94
a(F0.054566056282640218
F55.758407437802596
I00
tp95
a(F-1.7655371910676136
F94.069123520951337
I00
tp96
a(F-1.1155734068040966
F67.623960250786851
I00
tp97
a(F-0.23411415559530724
F28.861739379323623
I00
tp98
a(F-2.6011731533192091
F106.06601717798213
I00
tp99
a(F-1.9713242751830942
F163.98170629676957
I00
tp100
a(F-0.40102876580467495
F127.28314892396401
I00
tp101
a(F-0.1014939916568629
F166.17159805454119
I00
tp102
a(F-0.0042552934644763951
F125.86500705120545
I00
tp103
a(F-0.10427161192765544
F122.28654872879518
I00
tp104
a(F-0.35937599707315115
F158.11388300841898
I00
tp105
a(F0.51914611424652302
F50.990195135927848
I01
tp106
a(F1.0980304294768954
F75.026661927610775
I00
tp107
a(F-2.1663938788448736
F21.840329667841555
I00
tp108
a(F-2.2419147214697226
F35.510561809129406
I00
tp109
a(F-1.3644954442414639
F11
I00
tp110
a(F-0.31729789304486644
F12
I01
tp111
a(F-0.54295114043159298
F67.742158217759794
I00
tp112
a(F1.1669741934083504
F30.805843601498726
I00
tp113
a(F-0.43912124743061831
F46.097722286464439
I00
tp114
a(F-2.0649509001743276
F103.36827366266692
I00
tp115
a(F0.99794407085400127
F63.007936008093459
I00
tp116
a(F-0.015871682991789982
F23
I00
tp117
a(F-1.5549246438031066
F63.007936008093459
I00
tp118
a(F-1.094936255431926
F33.286633954186478
I00
tp119
a(F1.13509574985786
F106.25441167311595
I00
tp120
a(F0.11735780942450535
F78.600254452514335
I00
tp121
a(F0.037705905725508249
F39.824615503479755
I00
tp122
a(F-2.1776868846073896
F460.18474550988759
I00
tp123
a(F-1.2067556181080725
F445.00449435932666
I00
tp124
a(F-0.16493993723924127
F405.01975260473409
I00
tp125
a(F0.0016572290814198531
F365.01232855891323
I00
tp126
a(F-0.0010115140606705708
F325.01384585891105
I00
tp127
a(F-0.0012954199632480012
F285.01578903632691
I00
tp128
a(F0.0023628430486946073
F245.00816312931289
I00
tp129
a(F-0.0015927040624834632
F205.00975586542216
I00
tp130
a(F-0.0023648304965755429
F165.01212076693034
I00
tp131
a(F-2.0504848842415049
F127.05904139414872
I00
tp132
a(F-1.3096961309265582
F110.3177229641729
I00
tp133
a(F-0.41643258172976116
F72.422372233999624
I00
tp134
a(F-1.2142998662904576
F108.72442227944924
I00
tp135
a(F-0.25515611136252048
F69.656299069071991
I00
tp136
a(F-0.0067371454203208891
F29.832867780352597
I00
tp137
a(F0.69044645705469199
F80
I00
tp138
a(F0
F40
I00
tp139
a(F0.90327026659466458
F108.23123393919151
I00
tp140
a(F0.0064828913495453833
F68.410525505948286
I00
tp141
a(F-0.05131442924364249
F29.068883707497267
I00
tp142
a(F-1.6978383924739844
F104.80458005259122
I00
tp143
a(F-0.96654540835797675
F74.323616704248181
I00
tp144
a(F-0.0065842669899649486
F32.695565448543633
I00
tp145
a(F0.97308168385567395
F159.84054554461454
I00
tp146
a(F-0.28954561739036055
F30.413812651491099
I01
tp147
a(F0.56728917266856582
F157.62296786953354
I00
tp148
a(F-0.0036738718493785072
F117.42657280190033
I00
tp149
a(F-0.57920423836011103
F88.588938361400409
I00
tp150
a(F0.0027777706333207419
F48.764741360946438
I00
tp151
a(F1.1547193246637919
F69.814038702828242
I00
tp152
a(F0.25261583329757453
F30.413812651491099
I00
tp153
a(F-2.3794461130028077
F64
I00
tp154
a(F-1.6539991162028527
F56.920997883030829
I00
tp155
a(F-0.74869861961041906
F40.249223594996216
I00
tp156
a(F-0.62604652249353165
F80.212218520621903
I00
tp157
a(F-0.59159971033511116
F77.103826104804938
I00
tp158
a(F1.584684322725864
F72.006944109578768
I00
tp159
a(F1.5297235482044425
F73.061617830431317
I00
tp160
a(F1.5232132235179137
F63.071388124885914
I00
tp161
a(F1.5224469401429932
F62.072538211353979
I00
tp162
a(F1.5172760583355815
F56.080299571239813
I00
tp163
a(F1.6756732655251305
F57.314919523628397
I00
tp164
a(F1.8018869939907933
F34.928498393145958
I00
tp165
a(F-1.4424730991091019
F62.513998432351137
I00
tp166
a(F-1.4876550949064553
F60.207972893961475
I00
tp167
a(F-1.4876550949064553
F60.207972893961475
I00
tp168
a(F-1.4085974933315142
F55.731499172371095
I00
tp169
a(F-1.4085974933315142
F55.731499172371095
I00
tp170
a(F-1.0653479859212394
F117.72000679578642
I00
tp171
a(F-1.0653479859212394
F117.72000679578642
I00
tp172
a(F-1.0653479859212394
F117.72000679578642
I00
tp173
a(F-1.0653479859212394
F117.72000679578642
I00
tp174
a(F-0.025282981387993342
F77.414468931847622
I00
tp175
a(F-0.022620575355313477
F37.12142238654117
I00
tp176
a(F1.3628501619605782
F117.17508267545622
I00
tp177
a(F0.46738101849866709
F81.024687595818591
I00
tp178
a(F0.011215049631147167
F40.718546143004666
I00
tp179
a(F-0.4289564020196539
F576.0008680549015
I00
tp180
a(F0.00012956011030818004
F536.00093283500917
I00
tp181
a(F0.00015045682339787092
F496.00100806349172
I00
tp182
a(F0.00017685264011380042
F456.00109648990974
I00
tp183
a(F-0.0021929789406738287
F416
I00
tp184
a(F0
F376
I00
tp185
a(F0
F336
I00
tp186
a(F0.82241827927137834
F152.83978539634239
I00
tp187
a(F0.0069766309917724811
F112.53888216967503
I00
tp188
a(F-1.0555473459959526
F115.95257651298655
I00
tp189
a(F-0.020806681574754293
F76.157731058639087
I00
tp190
a(F0.019940376634258961
F36.878177829171548
I00
tp191
a(F0.065125163334385672
F170
I00
tp192
a(F-0.0014529593843848332
F129.55307792561317
I00
tp193
a(F-0.0010281010771104881
F90.09439494219383
I00
tp194
a(F-0.18419326864363184
F119.87076374162301
I00
tp195
a(F0.0065159351071333305
F79.378838489864535
I00
tp196
a(F-0.0041760117027282995
F39.217343102255157
I00
tp197
a(F1.1232763516377267
F67.882250993908556
I00
tp198
a(F1.7939534826244286
F38.600518131237564
I00
tp199
a(F2.710893403104909
F53.600373133029585
I00
tp200
a(F-2.0038245628865656
F48.795491595023407
I00
tp201
a(F-1.443615686272532
F35.735136770411273
I00
tp202
a(F-1.7520412413248561
F13.892443989449804
I00
tp203
a(F-1.4859937907192204
F59.908263203000637
I00
tp204
a(F-1.0617786379562144
F31.240998703626616
I00
tp205
a(F1.1214171040271053
F97.267671916212734
I00
tp206
a(F0.13056554055413372
F57.870545184921149
I00
tp207
a(F-0.030234686194836158
F17.720045146669349
I00
tp208
a(F-2.7378440505735036
F51.855568649856693
I00
tp209
a(F-1.9556143811911708
F46.097722286464439
I00
tp210
a(F1.5707963267948966
F64
I00
tp211
a(F1.5707963267948966
F64
I00
tp212
a(F1.5707963267948966
F64
I00
tp213
a(F1.5707963267948966
F64
I00
tp214
a(F1.5707963267948966
F48
I00
tp215
a(F-1.2490457723982544
F50.596442562694072
I00
tp216
a(F-1.2490457723982544
F50.596442562694072
I00
tp217
a(F-1.3997567013259729
F111.6288493177279
I00
tp218
a(F-1.3997567013259729
F111.6288493177279
I00
tp219
a(F-0.95155388981706057
F115.43396380615195
I00
tp220
a(F-0.95155388981706057
F115.43396380615195
I00
tp221
aa(lp222
(F1.8925468811915387
F50.596442562694072
I00
tp223
a(F1.3996568261964928
F46.861498055439924
I00
tp224
a(F1.1578547723704933
F18.110770276274835
I00
tp225
a(F1.7403245382528194
F112.61438629233834
I00
tp226
a(F0.77822344179284153
F75.432088662584434
I00
tp227
a(F-0.16304481605185561
F98.412397592986224
I00
tp228
a(F0.013297088587547634
F57.314919523628397
I00
tp229
a(F1.4455140573781247
F49.010203019371382
I00
tp230
a(F0.99302666704276721
F20.248456731316587
I00
tp231
a(F-0.19690886293827692
F119.4026800369238
I00
tp232
a(F0.070546126933241915
F85.428332536694171
I00
tp233
a(F0.015705514831139133
F46.957427527495582
I00
tp234
a(F-0.45172313163655753
F587.0417361653258
I00
tp235
a(F0.34927927812943294
F96.208107766445551
I00
tp236
a(F0.0059700783245375533
F55.713553108736477
I00
tp237
a(F0.46062314750516897
F116.77756633874505
I00
tp238
a(F-0.0053787020520097428
F76.419892698171196
I00
tp239
a(F-1.3595265333657585
F103.58571330062848
I00
tp240
a(F-0.49687557893954226
F66.603303221386852
I00
tp241
a(F0.15492563334125498
F26.076809620810597
I00
tp242
a(F0.68808121809427014
F82.607505712253527
I00
tp243
a(F0.15988020134753134
F46.840153714521477
I00
tp244
a(F0.61482318265304858
F115.25623627379127
I00
tp245
a(F0.028622038362950519
F76.400261779656233
I00
tp246
a(F-1.4527518713606544
F97.24710792614863
I00
tp247
a(F-0.64015467429350448
F62.241465278381739
I00
tp248
a(F0.1883699723811052
F20.248456731316587
I00
tp249
a(F0.44994983562794033
F161.24515496597098
I00
tp250
a(F0.13997872316723869
F128.01562404644207
I00
tp251
a(F-0.0042605813561862327
F88.0056816347672
I00
tp252
a(F-0.26913428949858709
F113.75851616472501
I00
tp253
a(F-0.0037076734779528664
F73.498299300051841
I00
tp254
a(F-0.0047732334386760833
F34.205262752974143
I00
tp255
a(F1.051650212548374
F67.882250993908556
I00
tp256
a(F0.10932960008200965
F27.018512172212592
I00
tp257
a(F1.1280411998243842
F55.461698495448189
I00
tp258
a(F0.60570110678697642
F26.627053911388696
I01
tp259
a(F0.057999393207952998
F11.661903789690601
I01
tp260
a(F-0.303734485842587
F12.041594578792296
I01
tp261
a(F2.2498016354934407
F18.248287590894659
I00
tp262
a(F1.5476062615039483
F11.180339887498949
I00
tp263
a(F1.3509320370391844
F11.661903789690601
I00
tp264
a(F0.11751164543144599
F12.041594578792296
I01
tp265
a(F2.0899424410414191
F19.416487838947599
I00
tp266
a(F1.7495878379601546
F25.059928172283335
I00
tp267
a(F1.5991676928700844
F17.262676501632068
I00
tp268
a(F2.297438667476623
F22
I00
tp269
a(F2.0612746881991511
F27.586228448267445
I00
tp270
a(F2.0835428364207811
F26.248809496813376
I00
tp271
a(F2.0706398194227376
F26.683328128252668
I00
tp272
a(F2.0100038711557966
F27.586228448267445
I00
tp273
a(F2.0468485949650352
F25.96150997149434
I00
tp274
a(F-0.058755822715720996
F12.727922061357855
I01
tp275
a(F0.17467219900823983
F12.206555615733702
I01
tp276
a(F-0.53966501120294463
F93.107464792034804
I00
tp277
a(F-0.007994909605355538
F52.392747589718944
I00
tp278
a(F0.42294611752200373
F113.27841806805037
I00
tp279
a(F-0.0023752924449600421
F74.330343736592525
I00
tp280
a(F-0.0059405241783951901
F33.97057550292606
I00
tp281
a(F-3.0863176048940182
F102.30347012687302
I00
tp282
a(F-2.3290084914573534
F125.36347155371855
I00
tp283
a(F-1.6925894636926229
F99.639349656649202
I00
tp284
a(F-2.4884969564916783
F11.045361017187261
I00
tp285
a(F-1.4749945126410973
F8.0622577482985491
I00
tp286
a(F1.3348193844190623
F74.168726563154635
I00
tp287
a(F0.70618873804065663
F59.941638282582836
I00
tp288
a(F0.17993730803901364
F17.804493814764857
I00
tp289
a(F-0.67787343693741953
F168.01190434013895
I00
tp290
a(F0.0040918584982083672
F128.00390619039717
I00
tp291
a(F-0.0035508062041893496
F88.0056816347672
I00
tp292
a(F0.011363147264290774
F48
I00
tp293
a(F-1.313472611823808
F98.2344135219425
I00
tp294
a(F-0.47675806268232979
F64.070273918565391
I00
tp295
a(F-0.0051981338173812119
F24.020824298928627
I00
tp296
a(F-0.25360021634120677
F80.808415403347695
I00
tp297
a(F-0.20946156964518536
F254.24397731313127
I00
tp298
a(F-0.023974851602906355
F220.51303816327959
I00
tp299
a(F-0.0033292855200106608
F179.79988876526036
I00
tp300
a(F-0.0021454079121974168
F139.98928530426892
I00
tp301
a(F0.0051564392942831105
F99.744674043279119
I00
tp302
a(F-0.0030110313820856938
F59.933296255086788
I00
tp303
a(F-0.014924264990084701
F20.124611797498108
I00
tp304
a(F-0.77282021038516557
F100.56838469419701
I00
tp305
a(F0.003127561818856428
F60.406953242155822
I00
tp306
a(F2.4982577129571597
F79.699435380685102
I00
tp307
a(F0.50789326076716002
F66.407830863535963
I00
tp308
a(F-3.0297617240346728
F59.506302187247357
I00
tp309
a(F-2.4399506829749078
F84.02380615040002
I00
tp310
a(F-1.3952578228461627
F76.026311234992846
I00
tp311
a(F-0.34500217720710591
F86.023252670426274
I00
tp312
a(F0.0015159159686701784
F46.010868281309364
I00
tp313
a(F-0.33703496342877948
F93.984041198492847
I00
tp314
a(F0.0021505343191403625
F54.42425929675111
I00
tp315
a(F-0.0021505343191403625
F17.088007490635061
I00
tp316
a(F-1.1961539735325344
F63.007936008093459
I00
tp317
a(F0.29507420283324359
F119.40686747419514
I00
tp318
a(F0.042400069936982643
F81.006172604314543
I00
tp319
a(F0.0047961262943840843
F41.182520563948003
I00
tp320
a(F-2.5879571680392539
F163.85664466233891
I00
tp321
a(F-1.7822101134839663
F166.97305171793442
I00
tp322
a(F-0.93073532342990983
F140.42791745233566
I00
tp323
a(F0.0059692298401006205
F100.20977996183805
I00
tp324
a(F-0.0092804760163041067
F60.21627686929839
I00
tp325
a(F-0.23509197961934714
F119.77478866606278
I00
tp326
a(F-0.032167118536563954
F80.993826925266347
I00
tp327
a(F2.2904855557625687
F64.884512790033341
I00
tp328
a(F-0.76456784336123107
F67.896980787071826
I00
tp329
a(F-0.76456784336123107
F67.896980787071826
I00
tp330
a(F-0.76456784336123107
F67.896980787071826
I00
tp331
a(F-0.76456784336123107
F67.896980787071826
I00
tp332
a(F-0.76456784336123107
F67.896980787071826
I00
tp333
a(F-0.76456784336123107
F67.896980787071826
I00
tp334
a(F-0.76456784336123107
F67.896980787071826
I00
tp335
a(F1.8157749899217608
F65.969690009882569
I00
tp336
a(F1.8157749899217608
F65.969690009882569
I00
tp337
a(F1.8157749899217608
F65.969690009882569
I00
tp338
a(F1.8157749899217608
F65.969690009882569
I00
tp339
a(F1.1806737113099528
F44.204072210600685
I00
tp340
a(F2.1056044176807571
F18.357559750685819
I00
tp341
a(F1.7301479676988141
F113.43720729989786
I00
tp342
a(F0.7532412178834349
F79.075912893876861
I00
tp343
a(F0.002914499519774072
F39.05124837953327
I00
tp344
a(F1.3782180721132775
F50.039984012787215
I00
tp345
a(F1.8439829154487342
F56.008927859761783
I00
tp346
a(F-2.6725076247798163
F53.141321022345693
I00
tp347
a(F-2.2543516784989235
F67.675697262754525
I00
tp348
a(F-1.8185036244745758
F66.007575322836999
I00
tp349
a(F-1.2198033264040138
F40.249223594996216
I00
tp350
a(F-2.4419323426892543
F105.70241246064349
I00
tp351
a(F-0.016471969508122797
F41.976183723630712
I01
tp352
a(F-2.3748839026392505
F25.238858928247925
I00
tp353
a(F-2.2140062995073952
F31.144823004794873
I00
tp354
a(F-1.3108656267703684
F21.023796041628639
I00
tp355
a(F1.3547113544981091
F172
I00
tp356
a(F0.093453119737690216
F23.53720459187964
I01
tp357
a(F-0.24958692543698469
F40.249223594996216
I01
tp358
a(F1.3455195475808415
F22.022715545545239
I00
tp359
a(F-0.17283297908111939
F67.623960250786851
I00
tp360
a(F-0.14446491396374661
F34.205262752974143
I00
tp361
a(F0.43364082056831865
F149.03690818049066
I00
tp362
a(F0.0018301590108080745
F109.98636279102969
I00
tp363
a(F0.0022230903615252373
F69.526973183074787
I00
tp364
a(F0.59018186862142441
F84.202137740083529
I00
tp365
a(F-0.0016313199232165232
F43.68065933568311
I00
tp366
a(F-0.63221472690675418
F345.6486655550691
I00
tp367
a(F-0.53592694633626969
F96.74709297958259
I00
tp368
a(F0
F56.435804238089851
I00
tp369
a(F-1.6044914341409127
F55.226805085936306
I00
tp370
a(F-1.1071487177940904
F107.33126291998991
I00
tp371
a(F-1.1071487177940904
F107.33126291998991
I00
tp372
aa(lp373
(F2.1587989303424635
F57.688820407423826
I00
tp374
a(F1.5711167802612209
F60.033324079214538
I00
tp375
a(F1.2021942931205389
F32.388269481403292
I00
tp376
a(F1.6326641726592772
F113.21660655575224
I00
tp377
a(F0.70030763166833676
F85.328775919967356
I00
tp378
a(F-0.10344572233079763
F109.29318368498559
I00
tp379
a(F-0.015356928491131683
F69.115844782509896
I00
tp380
a(F1.2585220629935234
F51.662365412357957
I00
tp381
a(F0.72196309982336881
F193.31321734428818
I00
tp382
a(F0.001385742851797378
F153.05227865013967
I00
tp383
a(F0.0023750172571577188
F112.79184367674819
I00
tp384
a(F0.001447526130117005
F73.498299300051841
I00
tp385
a(F0.015189523369645741
F84.202137740083529
I00
tp386
a(F0.023502831748217101
F43.965895873961216
I00
tp387
a(F0.57225493447878151
F105.75916035975324
I00
tp388
a(F-0.011900786000682562
F65.946948375190189
I00
tp389
a(F0.035530065263133181
F25.612496949731394
I00
tp390
a(F-1.8175925088219334
F104.20172743289815
I00
tp391
a(F-1.1293892602405995
F80.361682411457764
I00
tp392
a(F-0.175061049123165
F40.792156108742276
I00
tp393
a(F1.222654385824594
F79.906195003891909
I00
tp394
a(F0.12880765589853738
F40.792156108742276
I00
tp395
a(F1.0126356079144383
F94.794514609232536
I00
tp396
a(F-0.042828167587281474
F54.451813560247928
I00
tp397
a(F-1.5311496955001263
F106.10372283760829
I00
tp398
a(F-0.76230246443631344
F76.661594035083823
I00
tp399
a(F-0.070060582638455493
F38.013155617496423
I00
tp400
a(F0.71882999962162453
F118.84864324004712
I00
tp401
a(F-0.61916134713046267
F22.472205054244231
I00
tp402
a(F0.78345641826500501
F81.024687595818591
I00
tp403
a(F-0.038096194227549063
F42.449970553582247
I00
tp404
a(F-0.071464480234320504
F106.89246933250256
I00
tp405
a(F-0.0023832844263376174
F66.730802482811484
I00
tp406
a(F0.81036748871803788
F83.186537372341689
I00
tp407
a(F-0.072529235351450616
F43.46262762420146
I00
tp408
a(F1.2749100373440401
F47.265209192385896
I00
tp409
a(F1.0177835127291868
F12.806248474865697
I01
tp410
a(F2.1587989303424635
F57.688820407423826
I00
tp411
a(F2.1587989303424635
F57.688820407423826
I00
tp412
a(F2.1587989303424635
F57.688820407423826
I00
tp413
a(F2.1587989303424635
F57.688820407423826
I00
tp414
a(F2.1587989303424635
F57.688820407423826
I00
tp415
a(F2.1587989303424635
F57.688820407423826
I00
tp416
a(F2.1587989303424635
F57.688820407423826
I00
tp417
a(F2.1587989303424635
F57.688820407423826
I00
tp418
a(F2.1587989303424635
F57.688820407423826
I00
tp419
a(F-1.8925468811915389
F50.596442562694072
I00
tp420
a(F-1.8925468811915389
F50.596442562694072
I00
tp421
a(F-1.7478562379592542
F38.275318418009277
I00
tp422
a(F0.17482777201439115
F46.818799642878503
I00
tp423
a(F2.138236276252746
F46.097722286464439
I00
tp424
a(F1.6078095468577116
F28.319604517012593
I00
tp425
a(F1.8325957145940466
F16.552945357246848
I00
tp426
a(F-0.9339698761603632
F168.96153408394468
I00
tp427
a(F0.0019209636086063853
F129.40247292845683
I00
tp428
a(F-0.0070755571311469367
F89.560035730229586
I00
tp429
a(F0.14844506950817449
F263.09884074240995
I00
tp430
a(F-0.20211398975926453
F61.611687202997452
I00
tp431
a(F0.0045112475919060202
F21.587033144922902
I00
tp432
a(F0.91042565279911969
F157.07959765672945
I00
tp433
a(F-0.39172576788487046
F64.381674411279491
I00
tp434
a(F0.0043914397755382417
F24.758836806279895
I00
tp435
a(F0.79809013824441832
F63.007936008093459
I00
tp436
a(F-0.027579212399740705
F23.021728866442675
I00
tp437
a(F-1.1316558393487832
F85.615419172015976
I00
tp438
a(F-0.16539021881545946
F45.221676218380054
I00
tp439
a(F-0.27703970892444474
F53.037722424704477
I00
tp440
a(F-0.38211835450966136
F97.739449558507332
I00
tp441
a(F0.0060767795335374686
F57.245087125446844
I00
tp442
a(F-0.00096899194478528017
F18.027756377319946
I00
tp443
a(F-1.2156320293490617
F63.007936008093459
I00
tp444
a(F0.31705940032341617
F118.59595271340417
I00
tp445
a(F0.0057329429246664176
F82.365041127896006
I00
tp446
a(F-0.0022371327332102453
F43.416586692184822
I00
tp447
a(F-1.9982615875399778
F491.47126060432061
I00
tp448
a(F-1.0199497144285368
F470.01702096839006
I00
tp449
a(F0.00079162444624669703
F430.01860424869994
I00
tp450
a(F0.00095399336653123612
F390.02051228108502
I00
tp451
a(F-0.001684831973522094
F350.01285690671421
I00
tp452
a(F0.0011058985990057835
F310.01451578918045
I00
tp453
a(F-0.27592916641807541
F114.0175425099138
I00
tp454
a(F0.0082448072869696354
F74.464756764525859
I00
tp455
a(F-1.6379066299710909
F93.920178875468508
I00
tp456
a(F-1.6177189146552982
F46.097722286464439
I00
tp457
a(F0.24789782582299225
F25.553864678361276
I00
tp458
a(F-1.3145516739542515
F328.5665838152139
I00
tp459
a(F-1.3125734616572575
F77.369244535538797
I00
tp460
a(F-0.53848415317625697
F40.01249804748511
I00
tp461
a(F1.5300963188613519
F76.164296097318456
I00
tp462
a(F0.87821797663796186
F40.162171256046406
I00
tp463
a(F2.9034283465892301
F339.41862058525902
I00
tp464
a(F-0.7183965848339704
F67.007462271003817
I00
tp465
a(F0.022095850883844914
F27.018512172212592
I00
tp466
a(F2.7363968733004178
F415.65490493918151
I00
tp467
a(F3.0452022243029848
F33.060550509633082
I00
tp468
a(F1.961858062496999
F41.012193308819754
I00
tp469
a(F1.4877336886030799
F117.32433677630571
I00
tp470
a(F0.65411112285021122
F82.758685344802331
I00
tp471
a(F-0.0092434342136717973
F43.139309220245984
I00
tp472
a(F-2.2941451256997185
F459.41266852362702
I00
tp473
a(F-1.3320852417837763
F448.01004453025382
I00
tp474
a(F-0.28308129868169729
F409.00488994631837
I00
tp475
a(F-0.00053006455197968094
F369.00542001439493
I00
tp476
a(F-0.000658951348139869
F329.00607897119471
I00
tp477
a(F-0.00084135227557879944
F289.00692033236851
I00
tp478
a(F-1.1002284130438502
F127.45587471748802
I00
tp479
a(F-0.06833578917144445
F87.664131775772461
I00
tp480
a(F-0.012989406524311686
F47.423622805517503
I00
tp481
a(F-2.8956477034542463
F95.268042910516428
I00
tp482
a(F-2.095795008151601
F90.376988221560026
I00
tp483
a(F-1.5205072715372145
F79.05694150420949
I00
tp484
a(F0.52471708725338528
F73.23933369440222
I00
tp485
a(F-0.002481384485300886
F33.015148038438355
I00
tp486
a(F1.5011853646902527
F96.674712308855618
I00
tp487
a(F0.72983533910403686
F63.158530698552511
I00
tp488
a(F0.085220230972129052
F22.135943621178654
I00
tp489
a(F-1.9803096861838223
F143.75326083258076
I00
tp490
a(F-1.5334129480328931
F84.403791384036765
I00
tp491
a(F-0.85925797427454675
F52.469038489379621
I00
tp492
a(F-1.3405115741377194
F467.17234507192313
I00
tp493
a(F-0.51637992540367961
F55.443665102516448
I01
tp494
a(F1.0951011079399038
F38.832975677895199
I00
tp495
a(F-0.89091118430971683
F404.17817853021211
I00
tp496
a(F0.0032608580073882898
F364.1977484828812
I00
tp497
a(F0.00098248435372871867
F324.18667461818967
I00
tp498
a(F-0.0022580431687124758
F284.14256984830695
I00
tp499
a(F-0.30997919780442551
F87.36131867136622
I00
tp500
a(F-0.0029325429131836778
F46.840153714521477
I00
tp501
a(F-1.8970087228642498
F99.864908751773257
I00
tp502
a(F-1.122716443420209
F29.832867780352597
I00
tp503
a(F-0.95864382984981322
F57.428216061444921
I00
tp504
a(F-0.95864382984981322
F57.428216061444921
I00
tp505
a(F-0.95864382984981322
F57.428216061444921
I00
tp506
a(F-0.95864382984981322
F57.428216061444921
I00
tp507
a(F-0.95864382984981322
F57.428216061444921
I00
tp508
a(F-0.95864382984981322
F57.428216061444921
I00
tp509
a(F-0.95864382984981322
F57.428216061444921
I00
tp510
a(F-0.95864382984981322
F57.428216061444921
I00
tp511
a(F2.0344439357957027
F71.554175279993274
I00
tp512
a(F2.0344439357957027
F71.554175279993274
I00
tp513
a(F2.0344439357957027
F71.554175279993274
I00
tp514
a(F1.5711167802612209
F60.033324079214538
I00
tp515
a(F1.2021942931205389
F32.388269481403292
I00
tp516
a(F1.6183794300718812
F21.023796041628639
I00
tp517
a(F0.70345227539077815
F100.62305898749054
I00
tp518
a(F0.0044709091072210327
F60.016664352494629
I00
tp519
a(F-0.16107278608923625
F86.023252670426274
I00
tp520
a(F-0.0015159159686701784
F46.010868281309364
I00
tp521
a(F1.6938731181920428
F48.507731342539614
I00
tp522
a(F1.0142525290672442
F18.357559750685819
I00
tp523
aa(lp524
(F1.5707963267948966
F32
I00
tp525
a(F1.2041200002655135
F27.018512172212592
I00
tp526
a(F-1.2596543067427766
F229.38177782901587
I00
tp527
a(F-0.24485185799274412
F208.62646045025065
I00
tp528
a(F0.0039699210128976148
F169.03549923019128
I00
tp529
a(F0.28933935686230905
F194.5507645834372
I00
tp530
a(F0.017224343009575094
F156.08010763707205
I00
tp531
a(F0.0019912579467167291
F115.83177456984762
I00
tp532
a(F0.0041119128618891665
F75.584389922787622
I00
tp533
a(F-0.011833767103150983
F35.777087639996637
I00
tp534
a(F-1.1071487177940904
F590
I00
tp535
a(F-0.094820748152282697
F86.05230967266364
I00
tp536
a(F0.013133874712996985
F46.010868281309364
I00
tp537
a(F-1.1124334601395627
F16.552945357246848
I00
tp538
a(F1.0366863756031357
F31.016124838541646
I00
tp539
a(F0.49589449143606057
F35.777087639996637
I00
tp540
a(F-1.4584311653517501
F115.66330446602328
I00
tp541
a(F-0.6067400074867404
F80.777472107017559
I00
tp542
a(F-0.004545423241059332
F40.853396431630991
I00
tp543
a(F-0.16400331662868606
F80.808415403347695
I00
tp544
a(F0.0093568051051717838
F41
I00
tp545
a(F1.3286515644108885
F48.010415536631214
I00
tp546
a(F0.059951166597492556
F91.678787077491378
I00
tp547
a(F-0.01203489190025131
F51.662365412357957
I00
tp548
a(F-0.0118839905976591
F11.401754250991379
I00
tp549
a(F-1.2886725946521813
F63.007936008093459
I00
tp550
a(F0.229110614097916
F117.64777940955791
I00
tp551
a(F-0.005570060349953998
F77.826730626437083
I00
tp552
a(F0.018459441484794503
F37.589892258425003
I00
tp553
a(F0.82647094198790239
F131.93938001976514
I00
tp554
a(F0.0026454964738493736
F91.678787077491378
I00
tp555
a(F0.0067881859321516913
F51.419840528729765
I00
tp556
a(F-0.077849222224343428
F113.52973178863765
I00
tp557
a(F0.004743335868341525
F72.422372233999624
I00
tp558
a(F0.75699354875347957
F87.664131775772461
I00
tp559
a(F-1.2337408450740628
F60.811183182043088
I00
tp560
a(F-0.52752224737381415
F23.259406699226016
I00
tp561
a(F-2.3369660910926378
F151.78932768808221
I00
tp562
a(F-1.3598713933211304
F130.92364186807515
I00
tp563
a(F-0.44658896829199124
F93.648278147545241
I00
tp564
a(F0.0043340942174463493
F54.203320931470607
I00
tp565
a(F0.51042859485937608
F636.03852084602545
I00
tp566
a(F0.0076669591562925632
F599.00333888885791
I00
tp567
a(F-0.0002389165090650458
F559.00357780608169
I00
tp568
a(F-0.91534941022417993
F143.40502083260543
I00
tp569
a(F0.0032368893627783279
F103.40696301506973
I00
tp570
a(F-0.0022593725675807974
F64.202803677098089
I00
tp571
a(F-0.01781989571046072
F23.600847442411894
I00
tp572
a(F-3.1100615701504237
F95.425363504678359
I00
tp573
a(F-2.7710644168820981
F24.020824298928627
I00
tp574
a(F-1.7192444024608422
F27.018512172212592
I00
tp575
a(F-0.14386313710405396
F97.529482721892876
I00
tp576
a(F-0.004264366474991732
F57.706152185014034
I00
tp577
a(F0.053520268459315012
F17.4928556845359
I00
tp578
a(F-2.0423593377644362
F465.10213931995628
I00
tp579
a(F-1.0707597467732253
F445.01011224465452
I00
tp580
a(F-0.024227996603450208
F405.01111095869948
I00
tp581
a(F-0.00081172107664295723
F365.01232855891323
I00
tp582
a(F-0.0010115140606705708
F325.01384585891105
I00
tp583
a(F0.0022130784005636173
F285.00701745746539
I00
tp584
a(F-1.1285933519231239
F125.7179382586272
I00
tp585
a(F-0.12089175487580262
F85.615419172015976
I00
tp586
a(F0.00075169116385920276
F46.61544808322666
I00
tp587
a(F-2.8406431469385276
F96.540147089177367
I00
tp588
a(F-2.0669687750818584
F89.961102705558247
I00
tp589
a(F-1.4699485516679625
F76.026311234992846
I00
tp590
a(F0.60138890068774797
F73.783466982786862
I00
tp591
a(F0.017472407623162489
F34.132096331752024
I00
tp592
a(F1.4515491198368879
F96.046863561492728
I00
tp593
a(F0.65921255365829134
F61.326992425847855
I00
tp594
a(F0.021357511539132013
F20.615528128088304
I00
tp595
a(F-2.1216538613266129
F99.624294225856374
I00
tp596
a(F-1.4797876844299893
F83.952367447261423
I00
tp597
a(F-0.78507770993112569
F51.478150704935004
I00
tp598
a(F-1.3383305685953468
F469.16308465180845
I00
tp599
a(F-0.31770268859126904
F432.04282195171351
I00
tp600
a(F-0.00054922011119717951
F391.9311163967464
I00
tp601
a(F0.0021607321575163319
F351.8891871029856
I00
tp602
a(F-0.00048308734654733954
F311.77716401301745
I00
tp603
a(F-0.00062574520457747695
F271.66523517005265
I00
tp604
a(F-0.22410427866670446
F104.23531071570709
I00
tp605
a(F-0.00088862535851319535
F64.776538962806583
I00
tp606
a(F-1.5401545794177174
F56.435804238089851
I00
tp607
a(F-1.8548546049562569
F59.211485372349848
I00
tp608
a(F-0.42855320027185151
F33.541019662496844
I00
tp609
a(F1.0896066577366881
F57.008771254956898
I00
tp610
a(F0.1223699765934505
F16.031219541881399
I00
tp611
a(F-1.2999708356791815
F82.540898953185632
I00
tp612
a(F-0.47536036442036078
F45.276925690687087
I00
tp613
a(F-0.16828564865136997
F52.086466572421671
I00
tp614
a(F-0.32674640229131757
F96.005208192055917
I00
tp615
a(F0.00055720648022283825
F56.080299571239813
I00
tp616
a(F0.0033112461762039302
F16.15549442140351
I00
tp617
a(F-1.2568581134583556
F60.133185513491632
I00
tp618
a(F0.35975081244192664
F114.12712210513327
I00
tp619
a(F-0.0089018420082793703
F73.824115301166998
I00
tp620
a(F-0.0039840426658530603
F34
I00
tp621
a(F3.0730545342238695
F158.90248582070703
I00
tp622
a(F2.4982178517817495
F137.27709204379295
I00
tp623
a(F1.7033762691879932
F126.21014222319853
I00
tp624
a(F0.90557262453808818
F97.49358953285082
I00
tp625
a(F-0.0014424800669554649
F56.885850613311568
I00
tp626
a(F-1.1382789061094885
F67.186308128963304
I00
tp627
a(F-0.23623269835436744
F27.166155414412248
I00
tp628
a(F0.95853505143188045
F70.710678118654755
I00
tp629
a(F-0.17159129421107355
F303.13363389765908
I00
tp630
a(F-0.0074661877576107649
F263.78210705049725
I00
tp631
a(F-0.00035547428931304026
F223.95758527006851
I00
tp632
a(F1.0410430886753836
F128.63125592172378
I00
tp633
a(F1.0410430886753836
F128.63125592172378
I00
tp634
a(F1.0410430886753836
F128.63125592172378
I00
tp635
a(F1.0410430886753836
F128.63125592172378
I00
tp636
a(F1.0410430886753836
F128.63125592172378
I00
tp637
a(F1.5707963267948966
F48
I00
tp638
a(F1.5707963267948966
F48
I00
tp639
a(F1.5707963267948966
F48
I00
tp640
a(F1.5707963267948966
F48
I00
tp641
a(F1.5707963267948966
F48
I00
tp642
a(F1.5707963267948966
F32
I00
tp643
a(F-2.5624953727457771
F90.13878188659973
I00
tp644
a(F-1.9379701606131159
F97.498717940288842
I00
tp645
a(F-1.2524535020509302
F75.073297516493838
I00
tp646
a(F1.2590385432738032
F28.319604517012593
I00
tp647
a(F2.710750198179638
F43.185645763378368
I00
tp648
a(F-2.2455372690184494
F57.628118136895637
I00
tp649
a(F-1.9004359551333025
F57.070132293521098
I00
tp650
a(F-1.5108451601974044
F40.249223594996216
I00
tp651
a(F-1.7782925532301004
F19.416487838947599
I00
tp652
a(F-1.8308312188101588
F195.76005721290542
I00
tp653
a(F1.1619185836073438
F38.600518131237564
I00
tp654
a(F-3.1314832375488315
F25.553864678361276
I00
tp655
a(F-2.6179938779914957
F45
I00
tp656
a(F-1.5930148921216174
F45.011109739707599
I00
tp657
a(F-0.52359877559830093
F12
I00
tp658
a(F1.5471567813298126
F719.20094549437295
I00
tp659
a(F0.52798471238709155
F684.00657891572939
I00
tp660
a(F0.00027241460830529363
F644.00698753973154
I00
tp661
a(F-0.0079586694475848319
F606.00330032104614
I00
tp662
a(F-0.00023949017340330059
F565.00353981192006
I00
tp663
a(F-0.00026969715725844168
F525.00380950998817
I00
tp664
a(F-0.00031418258473170368
F485.00412369380945
I00
tp665
a(F-0.00037066379558003959
F445.00449435932666
I00
tp666
a(F-0.00044387970163484169
F405.00493824149851
I00
tp667
a(F-0.00054116575360962926
F365.00547941092611
I00
tp668
a(F0.83801243442765383
F150.07331541616585
I00
tp669
a(F-0.0020042487587512703
F109.71326264403953
I00
tp670
a(F-0.004336942186883519
F69.354163537598808
I00
tp671
a(F0.0067894204091176746
F29.732137494637012
I00
tp672
a(F0.75368674311225536
F63.007936008093459
I00
tp673
a(F-0.015871682991789982
F23
I00
tp674
aa(lp675
(F2.0344439357957027
F35.777087639996637
I00
tp676
a(F1.5848028375842702
F38.948684188300895
I00
tp677
a(F1.6822242865869121
F23.600847442411894
I00
tp678
a(F0.82537685052073861
F17.691806012954132
I00
tp679
a(F0.84037118261691512
F105.47511554864494
I00
tp680
a(F-0.018179815072978389
F65.192024052026483
I00
tp681
a(F-0.076771891269777903
F90
I00
tp682
a(F0.93070817403315065
F58.600341295934449
I00
tp683
a(F2.1587989303424635
F211.28653530218153
I00
tp684
a(F2.0507739435205705
F34.828149534535996
I00
tp685
a(F1.7195325863935977
F31.016124838541646
I00
tp686
a(F-0.89603998882364966
F173.1040149736568
I00
tp687
a(F-0.034668185209500102
F140
I00
tp688
a(F0
F100
I00
tp689
a(F0
F60
I00
tp690
a(F-0.35299038782691028
F40.496913462633174
I00
tp691
a(F-0.61983688801421177
F83.486525858967212
I00
tp692
a(F0.0090186130926332986
F43.829214001622255
I00
tp693
a(F0.80999451251544841
F130.54118124178285
I00
tp694
a(F-0.0022106927680107802
F90.09439494219383
I00
tp695
a(F-0.002630419185349453
F50.635955604688654
I00
tp696
a(F0.058986609695239167
F10.04987562112089
I00
tp697
a(F-1.4711276743037347
F126
I00
tp698
a(F-0.45725111898538451
F90.049986118821806
I00
tp699
a(F0.013323661905096706
F50.009999000199947
I00
tp700
a(F-0.61551307731656779
F350.41118703603058
I00
tp701
a(F-0.0015599179859653312
F311.0064308016797
I00
tp702
a(F-0.0012494787333623414
F270.20362691866296
I00
tp703
a(F0.00090029235185662415
F230.20425712831639
I00
tp704
a(F0.0012789469114977692
F190.20515240129538
I00
tp705
a(F0.001960095494684122
F150.20652449211386
I00
tp706
a(F-0.0039055260178519902
F110.80162453682708
I00
tp707
a(F2.0344439357957027
F35.777087639996637
I00
tp708
a(F2.0344439357957027
F35.777087639996637
I00
tp709
a(F2.0344439357957027
F35.777087639996637
I00
tp710
a(F2.0344439357957027
F35.777087639996637
I00
tp711
a(F2.0344439357957027
F35.777087639996637
I00
tp712
a(F2.0344439357957027
F35.777087639996637
I00
tp713
a(F2.0344439357957027
F35.777087639996637
I00
tp714
a(F2.0344439357957027
F35.777087639996637
I00
tp715
a(F2.0344439357957027
F35.777087639996637
I00
tp716
a(F2.0344439357957027
F35.777087639996637
I00
tp717
a(F2.0344439357957027
F35.777087639996637
I00
tp718
a(F2.0063877288654552
F34.132096331752024
I00
tp719
a(F2.0560723157346796
F31.906112267087632
I00
tp720
a(F1.6447353644528375
F27.073972741361768
I00
tp721
a(F0.70345227539077815
F100.62305898749054
I00
tp722
a(F0.0014662746090121637
F61
I00
tp723
a(F0.016075785448390612
F20.396078054371138
I00
tp724
a(F-0.19739555984988089
F64
I00
tp725
a(F1.4056476493802696
F48.662100242385755
I00
tp726
a(F1.2183370517950021
F15.620499351813308
I00
tp727
a(F-0.23848104042570206
F181.3201588351389
I00
tp728
a(F0.002937711878029603
F140.80127840328723
I00
tp729
a(F-0.0070347063260491893
F100.96038827183659
I00
tp730
a(F-0.0004839489862544788
F61.400325732035007
I00
tp731
a(F0.37009008718139524
F168.40427548016706
I00
tp732
a(F-0.65062687891971738
F37
I00
tp733
a(F-2.8526172435972268
F115.80155439371269
I00
tp734
a(F-2.1765145362721245
F243.82165613415063
I00
tp735
a(F-1.1395268859281966
F216.92394980729998
I00
tp736
a(F-0.11315098159048631
F177.13271860387624
I00
tp737
a(F0.0033008627433548376
F136.82470537150812
I00
tp738
a(F0.35038436679303508
F54.571054598569013
I01
tp739
a(F-1.0259324113433514
F5.6568542494923806
I00
tp740
a(F-2.3561944901923457
F656
I00
tp741
a(F-1.3368535083895079
F646.25072533808429
I00
tp742
a(F-1.6945896909365281
F36.345563690772494
I00
tp743
a(F-2.4016177696139236
F22.022715545545239
I00
tp744
a(F-1.3714157489917049
F16.031219541881399
I00
tp745
a(F2.8863938299983989
F606.01320117634407
I00
tp746
a(F-2.3433578081859139
F43.046486500061768
I00
tp747
a(F-2.9164928095776759
F57.706152185014034
I00
tp748
a(F1.2955239037492561
F96.254870006665115
I00
tp749
a(F0.41558705089825088
F59.033888572581766
I00
tp750
a(F-0.0026454964738493736
F19.209372712298546
I00
tp751
a(F2.7886022657628828
F50.596442562694072
I00
tp752
a(F1.8245459464547267
F45.694638635183452
I00
tp753
a(F1.672306085429522
F18.681541692269406
I00
tp754
a(F-0.32130071187187959
F109.78615577567146
I00
tp755
a(F-0.0046692267677657107
F70.228199464317754
I00
tp756
a(F-0.0057470631632039471
F29.732137494637012
I00
tp757
a(F-0.34137649545314419
F607.00082372267013
I00
tp758
a(F0.00011622163413393949
F567.00088183352943
I00
tp759
a(F0.86995789773621812
F147.62791064023091
I00
tp760
a(F2.4773673156870846
F58.249463516842795
I00
tp761
a(F2.4524909113538325
F32.893768406797051
I00
tp762
a(F1.8925468811915387
F50.596442562694072
I00
tp763
a(F1.8925468811915387
F50.596442562694072
I00
tp764
a(F1.8925468811915387
F50.596442562694072
I00
tp765
a(F1.8925468811915387
F50.596442562694072
I00
tp766
a(F1.8925468811915387
F50.596442562694072
I00
tp767
a(F1.8925468811915387
F50.596442562694072
I00
tp768
a(F2.1262900620604404
F34.132096331752024
I00
tp769
a(F-1.6006382114620059
F67.029844099475568
I00
tp770
a(F-1.6313283465770037
F66.121101019266163
I00
tp771
a(F-1.6313283465770037
F66.121101019266163
I00
tp772
a(F-1.7711948806207751
F65.30696746902278
I00
tp773
a(F-0.86122101298673126
F99.624294225856374
I00
tp774
a(F0.96493042966419473
F49.406477308142499
I00
tp775
a(F1.1441410118390207
F120.41594578792295
I00
tp776
a(F0.13522702390869989
F80.280757345705197
I00
tp777
a(F0.012066246056871233
F40.26164427839479
I00
tp778
a(F0.029675089163153423
F115.52056094046635
I00
tp779
a(F0.0031163334021400146
F75
I00
tp780
a(F0.0022573325089902951
F35.440090293338699
I00
tp781
a(F0.61767250418566277
F101.82828683622247
I00
tp782
a(F-0.0025665647847219475
F61.220911460055866
I00
tp783
a(F-1.5868868920245456
F99.488692824863264
I00
tp784
a(F2.3837447011125459
F59.816385714952723
I00
tp785
a(F-2.3147256569365871
F83.024092888751269
I00
tp786
a(F1.3536894869270588
F106.97663296253066
I00
tp787
a(F0.48341610526549594
F70.213958726167832
I00
tp788
a(F-0.011172719438738987
F30.594117081556711
I00
tp789
a(F-1.7690903589995988
F85.615419172015976
I00
tp790
a(F-1.9801407744317565
F12.041594578792296
I00
tp791
a(F0.15642494178007871
F71.021123618258812
I00
tp792
a(F0.012914411139552939
F30.528675044947494
I00
tp793
a(F-1.0032696612745595
F63.007936008093459
I00
tp794
a(F-0.015871682991789982
F23
I00
tp795
a(F0.87172156433791059
F147.62791064023091
I00
tp796
a(F-0.00044244987947772429
F107.16809226630845
I00
tp797
a(F-1.5922504384303275
F43.931765272977593
I00
tp798
a(F-0.86203400243734318
F45.276925690687087
I01
tp799
a(F-0.53046293973757486
F420.00119047450329
I00
tp800
a(F0.00025062499083627898
F380.00131578719567
I00
tp801
a(F0.000309595117081507
F340.00147058505496
I00
tp802
a(F0.00039215299800510195
F300.00166666203705
I00
tp803
a(F-1.0284745932556412
F131.02671483327359
I00
tp804
a(F0.0023688618972856901
F90.210864090751286
I00
tp805
a(F-0.0041914601221550996
F50.24937810560445
I00
tp806
a(F-2.9920737953578742
F92.314679222754165
I00
tp807
a(F-2.1942818336073211
F90.801982357215081
I00
tp808
a(F-0.091541145489114406
F14.035668847618199
I00
tp809
a(F1.6315778645484613
F95.005263012108969
I00
tp810
a(F0.92148767507420803
F65.459911396212561
I00
tp811
a(F-0.0048308802939764917
F25.298221281347036
I00
tp812
a(F-1.8925468811915387
F48
I00
tp813
a(F-1.8054196924006294
F36.61966684720111
I00
tp814
a(F-1.9468500425554862
F27.459060435491963
I00
tp815
a(F-2.0280745951770403
F22.203603311174518
I00
tp816
a(F-2.079470837403111
F21.189620100417091
I00
tp817
a(F-2.087778105214865
F21.2602916254693
I00
tp818
a(F-2.1375255443184038
F20.615528128088304
I00
tp819
a(F-2.0794708374031119
F21.189620100417091
I00
tp820
a(F-2.0877781052148658
F21.2602916254693
I00
tp821
a(F-2.0807683864963105
F21.377558326431949
I00
tp822
a(F0.25104711400804636
F41.593268686170845
I01
tp823
a(F-2.8782861040206322
F57.271284253105414
I00
tp824
a(F-2.331454345340795
F76.576758876306585
I00
tp825
aa(lp826
(F2.3561944901923448
F45.254833995939045
I00
tp827
a(F1.8314003707122763
F53.851648071345039
I00
tp828
a(F1.6279539047642686
F38.275318418009277
I00
tp829
a(F1.3191063550367108
F36.138621999185304
I00
tp830
a(F0.98382174045321236
F130.58713566044705
I00
tp831
a(F-0.56954149874281246
F82.492423894561369
I00
tp832
a(F0.052237751481635453
F105.17128885774862
I00
tp833
a(F0.76735178989295072
F65.946948375190189
I00
tp834
a(F-0.052382402304476106
F27.802877548915689
I00
tp835
a(F1.191979581236513
F177.88198334851114
I00
tp836
a(F0.19196519885129915
F140.40655255364686
I00
tp837
a(F0.096164178119261035
F314.65854509293086
I00
tp838
a(F-0.071499209144042286
F119.26860441876563
I00
tp839
a(F0.025040956460876895
F81.706792863261981
I00
tp840
a(F0.40446212619528854
F142.13022197970423
I00
tp841
a(F0.01187152571920258
F102.53292154230269
I00
tp842
a(F0.037518772858562421
F63.702433234531945
I00
tp843
a(F-1.4712860926535911
F98.600202839547947
I00
tp844
a(F-0.67109559936791019
F61.846584384264908
I00
tp845
a(F-0.1337671524242201
F21.095023109728988
I00
tp846
a(F1.1219155768355309
F70.34912934784623
I00
tp847
a(F0.36093204254584466
F34.539832078341085
I00
tp848
a(F0.59174314120045013
F107.33592129385204
I00
tp849
a(F0.062954743419742609
F67.230945255886439
I00
tp850
a(F-1.6531181106285695
F90.443352436760108
I00
tp851
a(F-1.0000956085669084
F57.982756057296896
I00
tp852
a(F-0.15167327945226994
F17.464249196572979
I00
tp853
a(F-1.9318685194163798
F506.66754385888976
I00
tp854
a(F-0.93799728614703071
F503.00099403480306
I00
tp855
a(F-0.00017175490406140526
F463.00107991234751
I00
tp856
a(F-0.00020423793435719872
F423.00118203144541
I00
tp857
a(F-0.0002468983345922382
F383.00130548080381
I00
tp858
a(F-0.0003044835104200061
F343.00145772284992
I00
tp859
a(F-0.00038487441571222192
F303.00165016052307
I00
tp860
a(F-0.29792525981189932
F107.8563859954523
I00
tp861
a(F-0.0158301753467609
F67.357256476195644
I00
tp862
a(F0.018556821622967234
F27.202941017470888
I00
tp863
a(F-1.9470383374322699
F102.44998779892558
I00
tp864
a(F-1.2841573284916585
F83.725742755737912
I00
tp865
a(F-0.43394095821911005
F45.221676218380054
I00
tp866
a(F-1.1676208493106621
F104.89041900955492
I00
tp867
a(F-0.18266081074807206
F65.604877867426907
I00
tp868
a(F-0.01219451744825184
F25
I00
tp869
a(F0.9272952180016123
F80
I00
tp870
a(F0
F40
I00
tp871
a(F0.89605538457134415
F102.44998779892558
I00
tp872
a(F0.002493760416588664
F62.625873247404705
I00
tp873
a(F-0.016677206407897494
F22.022715545545239
I00
tp874
a(F-1.7148532052544669
F104.06248123122954
I00
tp875
a(F-0.96635805824026422
F72.917761896536561
I00
tp876
a(F-0.017693449050265819
F31.780497164141408
I00
tp877
a(F0.8985732799506394
F124.90796611905904
I00
tp878
a(F9.4580535043853331e-05
F84.64632301523794
I00
tp879
a(F0.027232658280775812
F45.122056690713912
I00
tp880
a(F-0.092321642601417508
F106.25441167311595
I00
tp881
a(F-0.0059523106545915638
F66.407830863535963
I00
tp882
a(F0.012047609854185737
F26.248809496813376
I00
tp883
a(F1.1056270349716302
F67.178865724273734
I00
tp884
a(F1.6852680473140271
F42.5205832509386
I00
tp885
a(F2.6921518418130876
F25.709920264364882
I00
tp886
a(F2.4343536638091514
F89.358827208060418
I00
tp887
a(F1.8192204332156194
F88.75246475450696
I00
tp888
a(F1.2213727817535549
F66.610809933523555
I00
tp889
a(F0.37627110831828148
F30.066592756745816
I00
tp890
a(F2.7470370100521269
F152.10851389715174
I00
tp891
a(F1.9472563951535733
F161.52399202595259
I00
tp892
a(F1.1255907838122754
F138.45215780189199
I00
tp893
a(F0.096908274394870819
F98.310731865854805
I00
tp894
a(F-0.0095317737123443713
F58.694122363316758
I00
tp895
a(F-0.48249783500980037
F46.486557196677836
I01
tp896
a(F0.31160564074504604
F59.008473967727717
I00
tp897
a(F2.9264363453210427
F56.515484603779164
I00
tp898
a(F-1.6465469587862636
F58.821764679410968
I00
tp899
a(F-1.3227581297925943
F34.928498393145958
I00
tp900
a(F1.1235464814211635
F454.80215478821117
I00
tp901
a(F0.089111158766062459
F416.08292442733097
I00
tp902
a(F-0.00028765940332275974
F375.97074354263259
I00
tp903
a(F-0.00035637070549521255
F335.85860119996926
I00
tp904
a(F0.0029188768976760038
F295.81920154040034
I00
tp905
a(F-6.6099969497912525e-05
F255.70686341981516
I00
tp906
a(F-0.25624811750647147
F88.459030064770658
I00
tp907
a(F-0.003472208268240351
F48.836461788299118
I00
tp908
a(F-1.7659547539115668
F59.236812878479547
I00
tp909
a(F-1.3347423222227992
F80.993826925266347
I00
tp910
a(F-0.54009904680426146
F44.271887242357309
I00
tp911
a(F1.0963964440029894
F65.76473218982953
I00
tp912
a(F0.091191000027761149
F27.166155414412248
I00
tp913
a(F-1.006541409513229
F89
I00
tp914
a(F-0.0082966522200855763
F48.754486972995622
I00
tp915
a(F-0.30586098679634821
F57.55866572463264
I00
tp916
a(F0.068056169343864603
F19.416487838947599
I00
tp917
a(F-0.61714233506004046
F82.855295545909442
I00
tp918
a(F0.0077754611843814381
F43.46262762420146
I00
tp919
a(F-1.0782657921536947
F66.272166103123567
I00
tp920
a(F0.33124372985550865
F125.67418191498204
I00
tp921
a(F0.036311159509132551
F87.235313950257549
I00
tp922
a(F-0.0067697225000067363
F47.413078364518789
I00
tp923
a(F0.68562837822054723
F58.694122363316758
I00
tp924
a(F0.2052590937019918
F132.5745073534124
I00
tp925
a(F0.027020449187264983
F94.36630754670864
I00
tp926
a(F0.0021683388055295794
F53.758720222862451
I00
tp927
a(F-0.24285777553277832
F85.088189544730596
I00
tp928
a(F-0.0026246658889985675
F44.77722635447622
I00
tp929
a(F1.1284977868574382
F70.178344238091
I00
tp930
a(F0.19947292875669698
F29.732137494637012
I00
tp931
a(F-2.4037775934693282
F64
I00
tp932
a(F-1.6728661701848848
F57.870545184921149
I00
tp933
a(F-1.8801788178710295
F56
I00
tp934
a(F-1.0882830317724199
F71.119617546778187
I00
tp935
a(F-1.0882830317724199
F71.119617546778187
I00
tp936
a(F-1.0882830317724199
F71.119617546778187
I00
tp937
a(F-1.0882830317724199
F71.119617546778187
I00
tp938
a(F-1.0882830317724199
F71.119617546778187
I00
tp939
a(F2.1587989303424635
F57.688820407423826
I00
tp940
a(F2.1587989303424635
F57.688820407423826
I00
tp941
a(F2.1587989303424635
F57.688820407423826
I00
tp942
a(F2.1587989303424635
F57.688820407423826
I00
tp943
a(F2.2008302363408117
F59.405386961116584
I00
tp944
a(F2.4009407216469612
F47.423622805517503
I00
tp945
a(F-2.9967396935425783
F105.47511554864494
I00
tp946
a(F-2.5770232599216931
F35.510561809129406
I00
tp947
a(F-2.1152254224294129
F48.010415536631214
I00
tp948
a(F-1.0828966638759212
F28.0178514522438
I00
tp949
a(F1.0098955195425239
F92.114059730314779
I00
tp950
a(F0.67800955181923594
F102.70345661174214
I00
tp951
a(F-0.004681613736674084
F62.393909959225986
I00
tp952
a(F0.023100583155310606
F22.203603311174518
I00
tp953
a(F3.0015806647294765
F223.00224214119461
I00
tp954
a(F2.4920230939153249
F70.83078426785913
I00
tp955
a(F1.9894152668011831
F76.05918747922567
I00
tp956
a(F1.451396246653033
F62.008063991709982
I00
tp957
a(F0.4280497487360897
F25.019992006393608
I00
tp958
a(F-1.6107750139181869
F174
I00
tp959
a(F-0.72415474340889752
F143.85061696079026
I00
tp960
a(F-0.0045713967273188771
F103.40696301506973
I00
tp961
a(F-0.13421755664272528
F84.77027781009096
I00
tp962
a(F0.0057772466486025742
F44.922154890432402
I00
tp963
a(F-0.65172229914691737
F88.814413244698073
I00
tp964
a(F-3.0060649396042924
F145
I00
tp965
a(F-2.4502910647114988
F78.847954951285828
I00
tp966
a(F-1.6851819404551884
F80.006249755878443
I00
tp967
a(F-0.64631536027544634
F48.010415536631214
I00
tp968
a(F0.72492661182526774
F95.775779819325933
I00
tp969
a(F0.2056568661551581
F68.410525505948286
I00
tp970
a(F-0.037616655870776228
F32.649655434629018
I00
tp971
a(F0.86380850213608973
F97.324200484771509
I00
tp972
a(F0.33621688405304351
F118.59595271340417
I00
tp973
a(F-0.61847430603453457
F85.586213843118443
I00
tp974
a(F1.0835995644955316
F51.039200620699383
I00
tp975
a(F2.1610878900712391
F218.27734651126764
I00
tp976
aa(lp977
(F1.5707963267948966
F16
I00
tp978
a(F0.88236944586887134
F17.088007490635061
I00
tp979
a(F2.9494053799789839
F114.58621208504974
I00
tp980
a(F1.8797788192357778
F125.29964086141668
I00
tp981
a(F0.88582244077590655
F96.881370758262918
I00
tp982
a(F0.013697773372865818
F57.271284253105414
I00
tp983
a(F-0.14867452322678876
F80.156097709406993
I00
tp984
a(F1.0685349339832033
F56.36488268416781
I00
tp985
a(F0.13942941120569952
F22.135943621178654
I00
tp986
a(F0.80215637097968573
F80.062475604992386
I00
tp987
a(F0.10759678696452379
F43.266615305567875
I00
tp988
a(F0.19739555984988089
F5.6568542494923806
I00
tp989
a(F-0.78539816339744828
F656
I00
tp990
a(F0
F616
I00
tp991
a(F0
F576
I00
tp992
a(F0.82241827927137834
F152.83978539634239
I00
tp993
a(F0.00046232081773123213
F113.21660655575224
I00
tp994
a(F-1.0554375418940185
F117.15374513859982
I00
tp995
a(F-0.011228029613375323
F77.129760793094647
I00
tp996
a(F0.01687603484692124
F36.878177829171548
I00
tp997
a(F0.28309578529949553
F93.1933474020544
I00
tp998
a(F0.027902495306045161
F54.230987451824994
I00
tp999
a(F0.70511643852003569
F117.38824472663352
I00
tp1000
a(F-0.03022742492716457
F77.794601355106892
I00
tp1001
a(F-1.3045030626252416
F109.41663493271945
I00
tp1002
a(F-0.37485286572569265
F70.604532432415411
I00
tp1003
a(F0.1198769948117242
F31.384709652950431
I00
tp1004
a(F0.37744712637851885
F172.13076424625552
I00
tp1005
a(F0.052995042152344407
F143.78456106272327
I00
tp1006
a(F0.018189504314770399
F104.38869670610895
I00
tp1007
a(F0.023904590944505255
F64.124878167525594
I00
tp1008
a(F-0.20743034594251153
F97.529482721892876
I00
tp1009
a(F0.045614404829372734
F58.463663928973865
I00
tp1010
a(F0.84589467339218549
F82.419657849326214
I00
tp1011
a(F0.064069588623197227
F42.638011210655684
I00
tp1012
a(F1.1300454790154744
F57.723478758647246
I00
tp1013
a(F0.035264824541893613
F20.396078054371138
I01
tp1014
a(F-0.11425432796143919
F12.041594578792296
I01
tp1015
a(F-0.43191223547234792
F11.704699910719626
I01
tp1016
a(F-2.3059224181946174
F19.235384061671343
I00
tp1017
a(F-1.6159215616533771
F23.194827009486403
I00
tp1018
a(F-1.5364077726210819
F13.45362404707371
I00
tp1019
a(F-0.61129935882178188
F12.206555615733702
I01
tp1020
a(F-1.7178746821832993
F15.652475842498529
I00
tp1021
a(F-1.2174659718759493
F12.041594578792296
I00
tp1022
a(F-0.3533792379418359
F11.401754250991379
I01
tp1023
a(F-2.3040031246052415
F16.643316977093239
I00
tp1024
a(F-2.149893607638913
F15.811388300841896
I00
tp1025
a(F-2.1663938788448753
F16.278820596099706
I00
tp1026
a(F-2.0899424410414209
F16.970562748477139
I00
tp1027
a(F-2.1064427122473823
F14.560219778561036
I00
tp1028
a(F-2.0734421698354586
F14.560219778561036
I00
tp1029
a(F0.021273386024059704
F24.738633753705962
I01
tp1030
a(F-0.77726826121750436
F42.190046219457976
I00
tp1031
a(F1.5918788913347743
F105.6882207249228
I00
tp1032
a(F0.83290113263380761
F175.82377541163197
I00
tp1033
a(F-0.0044955791423650915
F135.36986370680884
I00
tp1034
a(F0.0065307732676580521
F95.015788161757627
I00
tp1035
a(F0.0022831010558967968
F55.317266743757322
I00
tp1036
a(F-3.1203192675657316
F86.683331731077345
I00
tp1037
a(F-2.3884604245859951
F111.51681487560519
I00
tp1038
a(F-1.819720889542338
F89.358827208060418
I00
tp1039
a(F-2.4764172768536543
F23.021728866442675
I00
tp1040
a(F-1.4383518918764677
F19.026297590440446
I00
tp1041
a(F1.1415651605252233
F77.317527120310828
I00
tp1042
a(F0.47648429100723755
F62.641839053463301
I00
tp1043
a(F0.17219081452293938
F29.068883707497267
I00
tp1044
a(F-0.44130495880067011
F179.04468715937929
I00
tp1045
a(F-0.015148529709843928
F139.00359707575916
I00
tp1046
a(F-1.3559085453797088
F95.341491492424225
I00
tp1047
a(F-0.51384536628218624
F59.008473967727717
I00
tp1048
a(F-0.016947529806405015
F19
I00
tp1049
a(F1.5278120669271251
F93.085981758801893
I00
tp1050
a(F0.56642970826702665
F70.064256222413434
I00
tp1051
a(F-0.0048744874804134142
F79.05694150420949
I00
tp1052
a(F-0.014704822377851201
F86.023252670426274
I00
tp1053
a(F0.010826088776545006
F88.051121514720066
I00
tp1054
a(F0.028341098408949605
F64.124878167525594
I00
tp1055
a(F-0.081284496017628438
F53.009433122794285
I00
tp1056
a(F-0.88231579119181136
F102.30347012687302
I00
tp1057
a(F-0.88231579119181136
F102.30347012687302
I00
tp1058
a(F-0.88231579119181136
F102.30347012687302
I00
tp1059
a(F-0.88231579119181136
F102.30347012687302
I00
tp1060
a(F-0.88231579119181136
F102.30347012687302
I00
tp1061
a(F-0.86551825644126268
F97.185389848474657
I00
tp1062
a(F-0.8450288765286178
F94.921019800674287
I00
tp1063
a(F-0.91444795913170474
F93.407708461347028
I00
tp1064
a(F1.7837346763742943
F37.8549864614954
I00
tp1065
a(F1.7837346763742943
F37.8549864614954
I00
tp1066
a(F1.7837346763742943
F37.8549864614954
I00
tp1067
a(F1.7837346763742943
F37.8549864614954
I00
tp1068
a(F1.7837346763742943
F37.8549864614954
I00
tp1069
a(F1.7837346763742943
F37.8549864614954
I00
tp1070
a(F1.9347752833045408
F22.472205054244231
I00
tp1071
a(F-1.4645314639038178
F75.425459892532302
I00
tp1072
a(F-1.5033313022729919
F74.168726563154635
I00
tp1073
a(F-1.5033313022729919
F74.168726563154635
I00
tp1074
a(F-0.61344631529292704
F111.44954015158609
I00
tp1075
a(F0.0055408071684208693
F71.253070109294242
I00
tp1076
a(F1.333352504924461
F47.434164902525687
I00
tp1077
a(F0.90302797533310475
F130.64838307457157
I00
tp1078
a(F0.0057977671518258944
F91.093358704133863
I00
tp1079
a(F-0.003856022019382177
F51.244511901275828
I00
tp1080
a(F-0.28853199618366476
F586.02133066979741
I00
tp1081
a(F0.39052873241875563
F90.077744199108366
I00
tp1082
a(F-0.0073610091387097398
F49.769468552517218
I00
tp1083
a(F0.45690505585748475
F111.94641575325224
I00
tp1084
a(F-0.0044510091817375752
F72.249567472753768
I00
tp1085
a(F-1.4184588162878728
F101.24228365658294
I00
tp1086
a(F-0.59310687210512292
F65.76473218982953
I00
tp1087
a(F0.010752273791100997
F25.45584412271571
I00
tp1088
a(F0.78539816339744828
F80
I00
tp1089
a(F0
F40
I00
tp1090
a(F0.89027510212768224
F108.07404868885037
I00
tp1091
a(F-0.001084598273191073
F68.249542123006222
I00
tp1092
a(F-0.030751775153924132
F29.068883707497267
I00
tp1093
a(F-1.5270005528635586
F151.64761785138597
I00
tp1094
a(F-0.97036616086697247
F77.472575792986262
I00
tp1095
a(F0.0038207525089957173
F37.161808352124091
I00
tp1096
a(F-1.9218615833102333
F497.03118614429013
I00
tp1097
a(F-0.93909087153918946
F473
I00
tp1098
a(F-0.22679884805388539
F26.683328128252668
I01
tp1099
a(F-2.9194234020896195
F216.00231480241132
I00
tp1100
a(F-2.0377413212976796
F230.32585612562042
I00
tp1101
a(F-1.219290561426241
F131.30879635424276
I00
tp1102
a(F-0.24655719378103047
F92.130342450248165
I00
tp1103
a(F0.15641314270496398
F131.55227098001768
I00
tp1104
a(F0.0055725947320492963
F91.39474820797966
I00
tp1105
a(F0.090876543031229939
F59.439044406854322
I00
tp1106
a(F-0.036829953604416765
F19.646882704388499
I00
tp1107
a(F0.25732371497108852
F32
I00
tp1108
a(F-0.40489178628508338
F121.85236969382254
I00
tp1109
a(F0.0016103045662472226
F81.541400527584756
I00
tp1110
a(F2.2096227892345963
F51.419840528729765
I00
tp1111
a(F-0.88231579119181136
F102.30347012687302
I00
tp1112
a(F-0.88231579119181136
F102.30347012687302
I00
tp1113
a(F-0.88231579119181136
F102.30347012687302
I00
tp1114
a(F-0.88231579119181136
F102.30347012687302
I00
tp1115
a(F1.5707963267948966
F32
I00
tp1116
a(F1.5707963267948966
F32
I00
tp1117
a(F1.5707963267948966
F32
I00
tp1118
a(F1.5707963267948966
F32
I00
tp1119
a(F1.5707963267948966
F32
I00
tp1120
a(F1.5707963267948966
F16
I00
tp1121
a(F-1.3734007669450159
F81.584312217484552
I00
tp1122
a(F-0.6122546574657366
F45.177427992306072
I00
tp1123
a(F0.088655881867437447
F69
I00
tp1124
a(F0
F29
I00
tp1125
a(F1.9477055971197181
F51.623637996561229
I00
tp1126
a(F1.5458456999426673
F21.095023109728988
I00
tp1127
aa(lp1128
(F2.3561944901923448
F22.627416997969522
I00
tp1129
a(F1.6941544453592217
F28.231188426986208
I00
tp1130
a(F2.1997695484122657
F19.697715603592208
I00
tp1131
a(F1.6539375586833387
F24.083189157584592
I00
tp1132
a(F0.690182172258063
F114.58621208504974
I00
tp1133
a(F0.0073177924781235859
F75.133215025047349
I00
tp1134
a(F-0.10331159931901279
F99.247166206396045
I00
tp1135
a(F0.81649742534165171
F69.656299069071991
I00
tp1136
a(F0.12178774937755588
F31.906112267087632
I00
tp1137
a(F0.756162558438219
F124.33824833895642
I00
tp1138
a(F-0.060890742009851451
F82.734515167492219
I00
tp1139
a(F-0.12523354930463482
F616.0202918735713
I00
tp1140
a(F-0.013289072533408941
F580.00775856879704
I00
tp1141
a(F0.241196046292389
F81.252692263087511
I00
tp1142
a(F0.46792244046567966
F139.05394636614957
I00
tp1143
a(F-0.026045629719783303
F98.858484714262133
I00
tp1144
a(F-0.034399380578509664
F60
I00
tp1145
a(F-1.3511343325880003
F109.22453936730518
I00
tp1146
a(F-0.47756086810414811
F73.878278269055514
I00
tp1147
a(F0.095859147110012977
F36.76955262170047
I00
tp1148
a(F0.71882999962162453
F90.199778270237445
I00
tp1149
a(F-0.031158743582894832
F51.244511901275828
I00
tp1150
a(F0.85646472238156868
F106.10372283760829
I00
tp1151
a(F-0.058241445075123632
F66.708320320631671
I00
tp1152
a(F-1.3404324314558926
F112.2007130102122
I00
tp1153
a(F-0.45721338421658597
F76.380625815713245
I00
tp1154
a(F0.018516402068009086
F39.597979746446661
I00
tp1155
a(F2.7379587282765279
F147.62791064023091
I00
tp1156
a(F2.2742486021856738
F110.67971810589327
I00
tp1157
a(F1.589948049576309
F104.04806581575652
I00
tp1158
a(F0.79909593677031499
F73.006848993775918
I00
tp1159
a(F-0.01369777337286493
F33
I00
tp1160
a(F-1.5707963267948974
F62
I00
tp1161
a(F-0.5606188914722301
F27.018512172212592
I00
tp1162
a(F1.1062123884797064
F70.710678118654755
I00
tp1163
a(F-0.10535034590688053
F302.67639485100256
I00
tp1164
a(F-0.012313602666106593
F264.56001209555461
I00
tp1165
a(F-0.0027341704019012703
F223.95758527006851
I00
tp1166
a(F-0.00050923900734112237
F184.13310403075272
I00
tp1167
a(F0.0046113976119817046
F143.68020044529447
I00
tp1168
a(F0.00067015135390713354
F103.85566907973777
I00
tp1169
a(F0.0015037582650183623
F64.031242374328485
I00
tp1170
a(F0.0064515233929682836
F24.207436873820409
I00
tp1171
a(F2.3561944901923448
F21.213203435596427
I00
tp1172
a(F2.3561944901923448
F21.213203435596427
I00
tp1173
a(F2.3561944901923448
F21.213203435596427
I00
tp1174
a(F-1.558451274950672
F81.006172604314543
I00
tp1175
a(F-1.558451274950672
F81.006172604314543
I00
tp1176
a(F-1.558451274950672
F81.006172604314543
I00
tp1177
a(F-1.558451274950672
F81.006172604314543
I00
tp1178
a(F-1.558451274950672
F81.006172604314543
I00
tp1179
a(F-1.4845907531191178
F81.301906496711382
I00
tp1180
a(F-1.4627846020948503
F83.486525858967212
I00
tp1181
a(F-1.403694526863791
F84.172442046075858
I00
tp1182
a(F-1.4497691069856915
F74.545288248151536
I00
tp1183
a(F-1.4570043196511886
F70.455659815234142
I00
tp1184
a(F-1.5246752107803854
F65.069193939989759
I00
tp1185
a(F-1.5831413786391211
F81.006172604314543
I00
tp1186
a(F-1.5940479496053594
F86.023252670426274
I00
tp1187
a(F-1.524851670986777
F87.091905479212016
I00
tp1188
a(F-1.4949924894337574
F79.227520471109031
I00
tp1189
a(F-1.4777325980704787
F75.325958341065927
I00
tp1190
a(F-1.4973990008932849
F68.183575734923139
I00
tp1191
a(F-1.6207547225168393
F80.09993757800315
I00
tp1192
a(F-1.6324464974341557
F81.154174261093928
I00
tp1193
a(F2.1437624696836028
F36.891733491393431
I00
tp1194
a(F2.0472637462686034
F34.885527085024819
I00
tp1195
a(F2.1587989303424635
F21.633307652783937
I00
tp1196
a(F2.0852476398539244
F26.419689627245813
I00
tp1197
a(F-1.5128901215467894
F69.115844782509896
I00
tp1198
a(F-1.5707963267948966
F71
I00
tp1199
a(F-1.6102495278919362
F76.05918747922567
I00
tp1200
a(F-1.5587487169407106
F83.006023877788536
I00
tp1201
a(F-1.5127221672319426
F86.145226217127089
I00
tp1202
a(F-1.5159064642007427
F91.13725912051558
I00
tp1203
a(F-1.5707963267948966
F75
I00
tp1204
a(F-1.5707963267948966
F75
I00
tp1205
a(F-1.585501149172748
F68.007352543677214
I00
tp1206
a(F-1.1792667741338096
F117.92370414806346
I00
tp1207
a(F-1.2077847998447753
F137.99275343292487
I00
tp1208
a(F-1.2077847998447753
F137.99275343292487
I00
tp1209
a(F-1.2077847998447753
F137.99275343292487
I00
tp1210
a(F-1.2077847998447753
F137.99275343292487
I00
tp1211
a(F-1.2077847998447753
F137.99275343292487
I00
tp1212
a(F-1.2077847998447753
F137.99275343292487
I00
tp1213
a(F-1.2077847998447753
F137.99275343292487
I00
tp1214
a(F-1.2238794620009579
F138.23530663329106
I00
tp1215
a(F2.0863453342538758
F34.481879299133332
I00
tp1216
a(F2.0863453342538758
F34.481879299133332
I00
tp1217
a(F2.0863453342538758
F34.481879299133332
I00
tp1218
a(F2.0649918141891908
F34.014702703389901
I00
tp1219
a(F2.0877781052148645
F33.61547262794322
I00
tp1220
a(F1.6396528160959418
F29.068883707497267
I00
tp1221
a(F0.62326742808946189
F20.09975124224178
I00
tp1222
a(F0.075597723511918957
F97.49358953285082
I00
tp1223
a(F0.10083064339235559
F62.361847310675458
I00
tp1224
a(F0.0022026396096750389
F21.840329667841555
I00
tp1225
a(F-0.27829965900511144
F64
I00
tp1226
a(F0
F24
I00
tp1227
a(F1.8925468811915387
F50.596442562694072
I00
tp1228
a(F1.4593683670028819
F23.600847442411894
I00
tp1229
a(F-0.11059905887760424
F97.169954203961623
I00
tp1230
a(F-0.003562507194551312
F57.77542730261716
I00
tp1231
a(F0.0029732320712447802
F17.464249196572979
I00
tp1232
a(F-0.20045280435476798
F80.808415403347695
I00
tp1233
a(F0.051439995302881236
F92.17917335276988
I00
tp1234
a(F0.42614138374193455
F147.75655653811103
I00
tp1235
a(F-0.0090177916202209829
F108.07404868885037
I00
tp1236
a(F0.010422003335187391
F67.475921631349351
I00
tp1237
a(F0.6015534397873834
F43.68065933568311
I01
tp1238
a(F-1.0156177506742923
F92.962357973536797
I00
tp1239
a(F-1.0156177506742923
F92.962357973536797
I00
tp1240
a(F-1.0156177506742923
F92.962357973536797
I00
tp1241
a(F2.0344439357957027
F35.777087639996637
I00
tp1242
a(F2.0344439357957027
F35.777087639996637
I00
tp1243
a(F2.0344439357957027
F35.777087639996637
I00
tp1244
a(F2.0344439357957027
F35.777087639996637
I00
tp1245
a(F2.0344439357957027
F35.777087639996637
I00
tp1246
a(F2.2597207150097578
F22.022715545545239
I00
tp1247
a(F-1.5957911204138169
F80.02499609497022
I00
tp1248
a(F-1.6082787634865581
F80.05623023850174
I00
tp1249
a(F-0.99609571111536299
F50.537115073973112
I00
tp1250
a(F0.40503191099515901
F74.168726563154635
I00
tp1251
a(F0.013463524145936212
F37.054014627297811
I00
tp1252
a(F1.9465483815675073
F50.596442562694072
I00
tp1253
a(F1.4873534339184777
F22.803508501982758
I00
tp1254
a(F-0.042132962207104274
F98.89893831583835
I00
tp1255
a(F0.043995637045681768
F57.245087125446844
I00
tp1256
a(F0.018497376192821324
F17
I00
tp1257
a(F-0.27886399303098175
F85.906926379658117
I00
tp1258
a(F0.22105557618738159
F269.80363229578654
I00
tp1259
a(F0.20521730702528007
F163.00306745579974
I00
tp1260
a(F-1.0156177506742923
F92.962357973536797
I00
tp1261
a(F-1.0156177506742923
F92.962357973536797
I00
tp1262
a(F-1.0156177506742923
F92.962357973536797
I00
tp1263
a(F-1.0156177506742923
F92.962357973536797
I00
tp1264
a(F-1.0156177506742923
F92.962357973536797
I00
tp1265
a(F-1.0156177506742923
F92.962357973536797
I00
tp1266
a(F2.0344439357957027
F35.777087639996637
I00
tp1267
a(F2.0344439357957027
F35.777087639996637
I00
tp1268
a(F2.0344439357957027
F35.777087639996637
I00
tp1269
a(F2.0344439357957027
F35.777087639996637
I00
tp1270
a(F2.0344439357957027
F35.777087639996637
I00
tp1271
a(F2.4956239013980444
F35.846896657869841
I00
tp1272
a(F2.367550788380143
F44.384682042344295
I00
tp1273
a(F1.6172744581459
F43.046486500061768
I00
tp1274
a(F1.0959076004396939
F123.71337841963576
I00
tp1275
a(F0.084203220515663091
F84.053554356731397
I00
tp1276
a(F-0.33261274698478926
F88.323269867006175
I00
tp1277
a(F-0.0053400931907017224
F48.764741360946438
I00
tp1278
aa(lp1279
(F2.677945044588987
F35.777087639996637
I00
tp1280
a(F2.0536014195253305
F49.040799340956916
I00
tp1281
a(F1.8970225540195997
F43.931765272977593
I00
tp1282
a(F1.6539375586833387
F36.124783736376884
I00
tp1283
a(F2.8797932657906449
F231.93102422918759
I00
tp1284
a(F-0.53470942949590494
F90.005555384098372
I00
tp1285
a(F0.47070970202238538
F110.46266337545913
I00
tp1286
a(F-0.0023207797426350041
F70.213958726167832
I00
tp1287
a(F-0.1452361468196095
F32.572994949804659
I00
tp1288
a(F1.4313321664645704
F110.64357188738983
I00
tp1289
a(F0.44264732123166306
F69.856996786291916
I00
tp1290
a(F-0.22480144194318985
F636.01257849196656
I00
tp1291
a(F0.20737976228727639
F108.46658471621571
I00
tp1292
a(F-0.010623770286518841
F69.426219830839131
I00
tp1293
a(F0.53842517906709375
F128.81770064707723
I00
tp1294
a(F-0.027948202479445072
F88.617154095581284
I00
tp1295
a(F-0.045232775010529469
F48.414873747640819
I00
tp1296
a(F-1.4799972994809547
F107.5174404457249
I00
tp1297
a(F-0.66770856564597025
F73.925638313104884
I00
tp1298
a(F-0.060532019782106872
F35.777087639996637
I00
tp1299
a(F1.1071487177940904
F80
I00
tp1300
a(F0.1367230578672709
F39.11521443121589
I00
tp1301
a(F0.78953037128290093
F104.9952379872535
I00
tp1302
a(F-0.0041322078854530986
F64.536811201050213
I00
tp1303
a(F-1.5275800079883193
F100.42410069301094
I00
tp1304
a(F-0.74518316510701599
F68.600291544569984
I00
tp1305
a(F0.017302940023700586
F27.802877548915689
I00
tp1306
a(F0.6679290584858224
F131.93938001976514
I00
tp1307
a(F0.057216716613270879
F101.78899744078434
I00
tp1308
a(F-0.0064790496678104326
F62.169124169478209
I00
tp1309
a(F-0.12750955821523835
F22.135943621178654
I00
tp1310
a(F-0.076263761232209681
F95.462034338264544
I00
tp1311
a(F-0.049505659528318091
F55.461698495448189
I00
tp1312
a(F1.0120893688252703
F71.021123618258812
I00
tp1313
a(F-0.045423279421577423
F32.249030993194197
I00
tp1314
a(F-2.0899424410414196
F70
I00
tp1315
a(F-1.3590310177569762
F57.870545184921149
I00
tp1316
a(F-0.84336431204163009
F22.671568097509269
I00
tp1317
a(F-1.0070119553312686
F167.72000476985446
I00
tp1318
a(F0.0068070563676601026
F127.88275880665071
I00
tp1319
a(F-0.0010741134429936849
F87.36131867136622
I00
tp1320
a(F0.0028735553090761812
F47.801673610868477
I00
tp1321
a(F0.27027151017349471
F582.00773190740347
I00
tp1322
a(F-0.00038040530352079216
F542.00830251943557
I00
tp1323
a(F-0.00044102565012726913
F502.008964063392
I00
tp1324
a(F-0.00050336649006421652
F463.00971912045213
I00
tp1325
a(F-0.00061268870806685527
F423.01063816410101
I00
tp1326
a(F-1.7117361940826166
F115.26057435220423
I00
tp1327
a(F-2.0972036893068644
F101.00495037373169
I00
tp1328
a(F-1.4479734394961887
F88.238313673823114
I00
tp1329
a(F-0.69952212273398562
F53.907327887774215
I00
tp1330
a(F0.31765732222929755
F65.924198895398035
I00
tp1331
a(F0.19156132032912598
F137.67352686700519
I00
tp1332
a(F0.033919121679186759
F98.310731865854805
I00
tp1333
a(F0.0095317737123443713
F58.694122363316758
I00
tp1334
a(F-0.24947436884146201
F89.157164602739584
I00
tp1335
a(F-0.0067083072416793676
F50.159744815937813
I00
tp1336
a(F1.059122899537992
F72.801098892805186
I00
tp1337
a(F0.00047858748358642345
F33.600595232822883
I00
tp1338
a(F-2.1390119912453809
F72.17340230306452
I00
tp1339
a(F-1.3340081805241368
F63.953107821277925
I00
tp1340
a(F-0.7217520186543549
F28.0178514522438
I00
tp1341
a(F-1.2466162339326399
F232.28000344411913
I00
tp1342
a(F-0.20973126958577826
F193.28993765843063
I00
tp1343
a(F0.0031019152678402051
F153.44380078712857
I00
tp1344
a(F-0.0031473429696218247
F113.88590782006349
I00
tp1345
a(F0.0064040870227741742
F74.040529441651074
I00
tp1346
a(F-0.015309037594523733
F33.526109228480422
I00
tp1347
a(F-0.39618989408201477
F147.62791064023091
I00
tp1348
a(F0.0055227253242753349
F107.93516572461452
I00
tp1349
a(F-0.0087048943762964015
F68.117545463705611
I00
tp1350
a(F2.8794361446798664
F75.451971478550519
I00
tp1351
a(F2.2470920203758231
F93.813645062965122
I00
tp1352
a(F1.6463728741829051
F87.464278422679513
I00
tp1353
a(F0.99210342142062746
F59.481089431852205
I00
tp1354
a(F0.11504529637346339
F22.847319317591726
I00
tp1355
a(F2.2213283200521223
F164.34719346554112
I00
tp1356
a(F1.4192535726626954
F153.57408635573907
I00
tp1357
a(F0.49678990825154878
F117.23907198540937
I00
tp1358
a(F-0.011086020322049528
F76.941536246685374
I00
tp1359
a(F0.022280435029046863
F37.336309405188942
I00
tp1360
a(F-1.1021463774330034
F100.56838469419701
I00
tp1361
a(F2.0091455586600162
F50.24937810560445
I00
tp1362
a(F1.7289227949329344
F42.01190307520001
I00
tp1363
a(F0.75758887004242936
F10.04987562112089
I00
tp1364
a(F-1.6578074274520067
F79.006328860414726
I00
tp1365
a(F1.2484491330658605
F60.728905802755904
I00
tp1366
a(F0.56137451635952473
F22.803508501982758
I00
tp1367
a(F0.96920681725286695
F84.148677945645701
I00
tp1368
a(F0.044338681148385906
F48.259714048054619
I00
tp1369
a(F-0.14531969890860097
F361.31149995537089
I00
tp1370
a(F1.2089046519466429
F89.157164602739584
I00
tp1371
a(F0.28133202484152875
F50
I00
tp1372
a(F2.112842655814263
F328.90728176797791
I00
tp1373
a(F-3.0462832440773435
F125.49501982150527
I00
tp1374
a(F-2.0663398491257063
F116.67476162392619
I00
tp1375
a(F-1.3335613277078164
F100.18482919085105
I00
tp1376
a(F-0.42145361501056033
F62.625873247404705
I00
tp1377
a(F0.0068211766061967438
F23.409399821439251
I00
tp1378
a(F0.9400265442101956
F111.40017953306898
I00
tp1379
a(F0.27094950492142544
F181.01104938649465
I00
tp1380
a(F0.0039571944050491581
F141.00354605470034
I00
tp1381
a(F-0.44868167630238576
F113.59577456930342
I00
tp1382
a(F0.59521381306804333
F115.11733144926528
I00
tp1383
a(F-0.0051186151383695311
F74.672618810377884
I00
tp1384
a(F-1.1823286833674627
F68.095521144932874
I00
tp1385
a(F-0.30321456554032711
F28.792360097775937
I00
tp1386
a(F-1.1751067347403141
F85.615419172015976
I00
tp1387
a(F-1.1751067347403141
F85.615419172015976
I00
tp1388
a(F-1.1751067347403141
F85.615419172015976
I00
tp1389
a(F-1.1751067347403141
F85.615419172015976
I00
tp1390
a(F-1.1751067347403141
F85.615419172015976
I00
tp1391
a(F-1.1751067347403141
F85.615419172015976
I00
tp1392
a(F2.3561944901923448
F45.254833995939045
I00
tp1393
a(F2.3561944901923448
F45.254833995939045
I00
tp1394
a(F2.3561944901923448
F45.254833995939045
I00
tp1395
a(F2.3561944901923448
F45.254833995939045
I00
tp1396
a(F2.4980915447965089
F45
I00
tp1397
a(F2.4841036737360618
F60.539243470661241
I00
tp1398
a(F2.0625001427259511
F68.264192663504048
I00
tp1399
a(F1.6052654277944054
F58.034472514187634
I00
tp1400
a(F0.61033711427428505
F23.086792761230392
I00
tp1401
a(F0.52044656402664202
F115.67627241573788
I00
tp1402
a(F-0.24841423243205485
F119.61605243444544
I00
tp1403
a(F0.0029585712493602756
F79.120161779409926
I00
tp1404
a(F-0.023851053279654089
F39.217343102255157
I00
tp1405
a(F2.7947460959386961
F223.00896842952304
I00
tp1406
a(F2.3315892038853079
F64.350602172784676
I00
tp1407
a(F1.9052749743956188
F65.551506466289538
I00
tp1408
a(F1.2541915245786797
F47.010637094172637
I00
tp1409
a(F0.31007558190478335
F8.0622577482985491
I00
tp1410
a(F-1.6951513213416582
F174
I00
tp1411
a(F-0.81423623392194333
F145
I00
tp1412
a(F0.0027085882100239544
F104.39348638684312
I00
tp1413
a(F-0.13235216289734986
F85.72630868059116
I00
tp1414
a(F0.0023370510554587831
F44.922154890432402
I00
tp1415
a(F-0.65825486953724166
F89.627004859026727
I00
tp1416
a(F0.0083557224268577812
F49.406477308142499
I00
tp1417
a(F0.75631119707957151
F134.34656675925888
I00
tp1418
a(F0.0063773641355910904
F94.540996398387932
I00
tp1419
a(F-0.0023112439585122324
F54.918120870983927
I00
tp1420
a(F-0.0279825159602618
F14.317821063276353
I00
tp1421
a(F-1.3597029935721503
F590
I00
tp1422
a(F-0.34658315396256079
F88.051121514720066
I00
tp1423
a(F0.013247391550790688
F48.010415536631214
I00
tp1424
a(F-1.0095465064880953
F17.4928556845359
I00
tp1425
a(F0.96594998709875846
F31.064449134018133
I00
tp1426
a(F0.5280744484263602
F35.777087639996637
I00
tp1427
a(F-1.3425225535568439
F227.26636354727023
I00
tp1428
a(F-0.35961695879761102
F189.02380802428036
I00
tp1429
aasS'version'
p1430
S'1.6.2'
p1431
sS'actions_blue'
p1432
(lp1433
(lp1434
(F1.2490457723982544
F101.19288512538814
I00
tp1435
a(F0.32935777941689537
F62.169124169478209
I00
tp1436
a(F0.19424099618140378
F21
I00
tp1437
a(F-2.2201970721549609
F67.801179930735714
I00
tp1438
a(F-1.7312480924470197
F53.488316481265329
I00
tp1439
a(F-1.5236649706703049
F34.885527085024819
I00
tp1440
a(F-1.8157749899217617
F16.492422502470642
I00
tp1441
a(F-0.41949883748870054
F67.36467917239716
I00
tp1442
a(F0.061048739305027411
F30.413812651491099
I00
tp1443
a(F1.3715699377932618
F176.10224302944013
I00
tp1444
a(F0.4302688103681831
F139.35924798878617
I00
tp1445
a(F-0.0012291223656371031
F99.247166206396045
I00
tp1446
a(F-0.05364206001246874
F59.008473967727717
I00
tp1447
a(F0.3133498250228488
F37
I00
tp1448
a(F0.60981767364525918
F78.006409993025571
I00
tp1449
a(F-0.0076385096886619763
F38.600518131237564
I00
tp1450
a(F-0.79592700679083794
F132.23085872821065
I00
tp1451
a(F-0.01754921861223302
F92.655275079188016
I00
tp1452
a(F-0.043671402554439798
F53.150729063673246
I00
tp1453
a(F-0.21722594543250384
F14.142135623730951
I00
tp1454
a(F1.7372785907689199
F122.03687967167957
I00
tp1455
a(F0.70206488611600459
F82.054859697643749
I00
tp1456
a(F-0.013317433103078535
F43.011626335213137
I00
tp1457
a(F0.60916619598401534
F162.40997506310995
I00
tp1458
a(F0.0012151892752667592
F121.60592090848209
I00
tp1459
a(F0.0050019590842396155
F82.200973230248309
I00
tp1460
a(F0.0096970219332761509
F41.400483088968905
I00
tp1461
a(F0.32286805073861791
F95.692214939356489
I00
tp1462
a(F-0.0082057091449425634
F56.0357029044876
I00
tp1463
a(F0.036464516280333648
F16.643316977093239
I00
tp1464
a(F-2.2450203129023825
F90.757919764613376
I00
tp1465
a(F-2.3084557859570172
F12.727922061357855
I00
tp1466
a(F-1.4753189183242412
F16.643316977093239
I00
tp1467
a(F-0.63228501314305152
F13.928388277184119
I00
tp1468
a(F-1.0970734919699505
F50.990195135927848
I00
tp1469
a(F1.7126933813990606
F113.13708498984761
I00
tp1470
a(F1.7126933813990606
F113.13708498984761
I00
tp1471
a(F-2.2794225989225669
F55.317266743757322
I00
tp1472
a(F-2.3291740410050803
F52.345009313209601
I00
tp1473
a(F-2.127697850900482
F62.433965115151864
I00
tp1474
a(F-2.127697850900482
F62.433965115151864
I00
tp1475
a(F-2.0763773816691016
F64.007812023221035
I00
tp1476
a(F-2.0152155366959956
F69.778220097678044
I00
tp1477
a(F-2.1685547183879788
F56.859475903318
I00
tp1478
a(F-2.2253670941182877
F54.203320931470607
I00
tp1479
a(F-2.2991137077860806
F49.578221024962161
I00
tp1480
a(F-2.0812846487116721
F57.30619512757761
I00
tp1481
a(F-2.0812846487116721
F57.30619512757761
I00
tp1482
a(F-2.0812846487116721
F57.30619512757761
I00
tp1483
a(F-2.0812846487116721
F57.30619512757761
I00
tp1484
a(F-2.0812846487116721
F57.30619512757761
I00
tp1485
a(F-2.0812846487116721
F57.30619512757761
I00
tp1486
a(F-2.0812846487116721
F57.30619512757761
I00
tp1487
a(F1.2050490255325519
F100.65783625729296
I00
tp1488
a(F1.2050490255325519
F100.65783625729296
I00
tp1489
a(F1.2050490255325519
F100.65783625729296
I00
tp1490
a(F1.2050490255325519
F100.65783625729296
I00
tp1491
a(F1.7632990256890633
F33.837848631377263
I00
tp1492
a(F1.7981266135945386
F20.518284528683193
I00
tp1493
a(F2.6374266921106413
F33.120990323358392
I00
tp1494
a(F2.2187500969399583
F40.311288741492746
I00
tp1495
a(F2.1543462689906896
F44.721359549995796
I00
tp1496
a(F2.0344439357957045
F44.721359549995796
I00
tp1497
a(F1.9176862463231608
F28.442925306655784
I00
tp1498
a(F-1.5006454356824221
F48.259714048054619
I00
tp1499
a(F-1.3838723705833225
F21.189620100417091
I00
tp1500
a(F-0.77090642433194656
F48.795491595023407
I00
tp1501
a(F0.56858479595364475
F39.812058474788763
I00
tp1502
a(F-2.7124721771576037
F93.391648448884339
I00
tp1503
a(F-0.37041788163601552
F61.073725938409879
I00
tp1504
a(F-0.045810971926736332
F21.095023109728988
I00
tp1505
a(F-1.2866455983521716
F95.707888912043188
I00
tp1506
a(F-2.9595137584561271
F36.61966684720111
I00
tp1507
a(F-2.5230421716487381
F60
I00
tp1508
a(F-1.4579893753125879
F56.008927859761783
I00
tp1509
a(F-0.37868867353360036
F20.024984394500787
I00
tp1510
a(F1.4465070439052887
F94.260277954183863
I00
tp1511
a(F0.44068528226205839
F91.049437120720299
I00
tp1512
a(F0.38172610119820494
F11.704699910719626
I01
tp1513
a(F-0.3773346614226667
F70.028565600046392
I00
tp1514
a(F-0.0026761755915085672
F32.015621187164243
I00
tp1515
a(F1.7586380372071808
F96.176920308356728
I00
tp1516
a(F1.1000657645658425
F71.344235926947874
I00
tp1517
a(F0.11318572143694006
F31.622776601683793
I00
tp1518
a(F0.96525166318992639
F174
I00
tp1519
a(F0
F134
I00
tp1520
a(F0
F94
I00
tp1521
a(F0
F54
I00
tp1522
a(F0.78539816339744828
F111.72287142747452
I00
tp1523
a(F0.075328890828340267
F75.166481891864535
I00
tp1524
a(F-0.01418072817903937
F34.713109915419565
I00
tp1525
a(F-0.71347906403819294
F128.1327436684316
I00
tp1526
a(F0.0039989123016308525
F87.823687009826685
I00
tp1527
a(F-0.012711179763425839
F48.373546489791295
I00
tp1528
a(F0
F8.0622577482985491
I00
tp1529
a(F1.4464413322481349
F126
I00
tp1530
a(F0.43256477692978468
F90.049986118821806
I00
tp1531
a(F-0.013323661905096706
F50.009999000199947
I00
tp1532
a(F0.58780466214080995
F168.10710871346279
I00
tp1533
a(F0.010625998258558589
F127.6401190848708
I00
tp1534
a(F0.0044810598077256181
F87.418533504057365
I00
tp1535
a(F-0.00023826542317761934
F48.010415536631214
I00
tp1536
a(F0.36841003759415081
F100.40418317978589
I00
tp1537
a(F-0.0036575065501773807
F59.908263203000637
I00
tp1538
a(F0.0090681768191540613
F20.248456731316587
I00
tp1539
a(F0.9272952180016123
F40.496913462633174
I01
tp1540
a(F2.220497533288456
F55.758407437802596
I00
tp1541
a(F1.5582938973038019
F54.918120870983927
I00
tp1542
a(F1.1578547723704942
F24.596747752497688
I00
tp1543
a(F2.2481827654922997
F122.44998979175131
I00
tp1544
a(F0.62638214374809564
F113.59577456930342
I00
tp1545
a(F-0.0043206644241515768
F73.348483283568996
I00
tp1546
a(F0.01219451744825184
F33.541019662496844
I00
tp1547
a(F0.82459376532450257
F64.560049566275893
I00
tp1548
a(F-0.0012391567387401992
F25
I00
tp1549
a(F-0.50160405418912024
F135.76450198781711
I00
tp1550
a(F-0.0074072719311653046
F95.462034338264544
I00
tp1551
a(F0.0074072719311653046
F55.154328932550705
I00
tp1552
a(F-0.48377911713120891
F94.254973343585434
I00
tp1553
a(F-0.077384295157143512
F58.463663928973865
I00
tp1554
a(F0.046712099229324622
F18.681541692269406
I00
tp1555
a(F-1.8312172501015915
F95.005263012108969
I00
tp1556
a(F-2.40104106541094
F28.0178514522438
I00
tp1557
a(F-1.3657275048120021
F21.023796041628639
I00
tp1558
a(F1.2998494764564752
F75
I00
tp1559
a(F0.33355602441510834
F37.12142238654117
I00
tp1560
a(F1.5121107929663857
F45.011109739707599
I00
tp1561
a(F1.5711167802612209
F21.023796041628639
I00
tp1562
a(F2.4264325576623689
F54.332310828824497
I00
tp1563
a(F1.5094975584968715
F51.009802979427398
I00
tp1564
a(F0.50926284021889323
F15.033296378372908
I00
tp1565
a(F-1.6373644905707203
F77
I00
tp1566
a(F-0.65824339763212203
F44.10215414239989
I00
tp1567
a(F-0.90730999305816473
F37.443290453698111
I00
tp1568
a(F2.5461827781110609
F624
I00
tp1569
a(F0.95864382984981322
F57.428216061444921
I00
tp1570
a(F0.95864382984981322
F57.428216061444921
I00
tp1571
a(F0.95864382984981322
F57.428216061444921
I00
tp1572
a(F0.95864382984981322
F57.428216061444921
I00
tp1573
a(F0.95864382984981322
F57.428216061444921
I00
tp1574
a(F0.95864382984981322
F57.428216061444921
I00
tp1575
a(F0.95864382984981322
F57.428216061444921
I00
tp1576
a(F0.95864382984981322
F57.428216061444921
I00
tp1577
a(F-2.0344439357957027
F71.554175279993274
I00
tp1578
a(F-2.0344439357957027
F71.554175279993274
I00
tp1579
a(F-2.0344439357957027
F71.554175279993274
I00
tp1580
a(F-1.57111678026122
F60.033324079214538
I00
tp1581
a(F-1.2021942931205394
F32.388269481403292
I00
tp1582
a(F-0.48995732625372934
F17
I00
tp1583
a(F-1.5910479148094452
F124.90796611905904
I00
tp1584
aa(lp1585
(F1.1071487177940904
F107.33126291998991
I00
tp1586
a(F0.093272162475740217
F67.119296778199342
I00
tp1587
a(F-0.033320995878247217
F26.832815729997478
I00
tp1588
a(F1.8045395076637982
F48.270073544588683
I00
tp1589
a(F1.0869150370902672
F30.14962686336267
I00
tp1590
a(F0.081945888006671908
F21.213203435596427
I00
tp1591
a(F-0.053889681076423113
F34.132096331752024
I00
tp1592
a(F-0.55165498252854706
F17.888543819998318
I00
tp1593
a(F2.2366626093715283
F243.97130978867168
I00
tp1594
a(F1.3191747046017595
F248.56789816868951
I00
tp1595
a(F0.32055521051487279
F210.02142747824567
I00
tp1596
a(F0.0010976943999514432
F169.1685549976709
I00
tp1597
a(F-0.0010976943999514432
F129.24395537122808
I00
tp1598
a(F-0.0020789990836878047
F89.319650693450427
I00
tp1599
a(F0.013272561408746775
F49.769468552517218
I00
tp1600
a(F0.51126379809766798
F90.426765949026404
I00
tp1601
a(F0.0085225209269466085
F50.606323715519977
I00
tp1602
a(F-0.72568438203360852
F135.32922818075923
I00
tp1603
a(F0.0033971456715375936
F95.707888912043188
I00
tp1604
a(F-0.009345522307490306
F55.901699437494742
I00
tp1605
a(F-0.023251622810462891
F19.235384061671343
I00
tp1606
a(F1.4063205967887811
F127.00393694685216
I00
tp1607
a(F0.40069200596230026
F89.050547443572739
I00
tp1608
a(F-0.013289776659478392
F49.010203019371382
I00
tp1609
a(F0.59081034962826262
F167.28717822953436
I00
tp1610
a(F0.0072123140577184941
F127.6401190848708
I00
tp1611
a(F0.0044810598077256181
F87.418533504057365
I00
tp1612
a(F-0.00023826542317761934
F48.010415536631214
I00
tp1613
a(F0.32220074408904065
F102.41581909060729
I00
tp1614
a(F0.042288974871627527
F63.513778032801667
I00
tp1615
a(F0.016906601553654976
F26.076809620810597
I00
tp1616
a(F-2.1791738440117037
F85.615419172015976
I00
tp1617
a(F-1.502354835726841
F79.025312400521386
I00
tp1618
a(F-0.50427335985816191
F42.01190307520001
I00
tp1619
a(F0.94352463153548705
F158.40454538932903
I00
tp1620
a(F0.11379200714370752
F109.41663493271945
I00
tp1621
a(F-0.01057881720106435
F69.115844782509896
I00
tp1622
a(F-1.9221229658342169
F49.819674828324601
I00
tp1623
a(F-1.5952734222012914
F41.048751503547585
I00
tp1624
a(F-0.6099912408686583
F18.110770276274835
I00
tp1625
a(F-3.0256998781594899
F191.00261778310789
I00
tp1626
a(F-2.401962210798529
F88.639720216164946
I00
tp1627
a(F-1.8097123857473711
F88.729927307532492
I00
tp1628
a(F-1.1965752220379626
F65.253352404301808
I00
tp1629
a(F-0.37449896440321506
F26.019223662515376
I00
tp1630
a(F1.5323537367737083
F126
I00
tp1631
a(F0.5181112831914092
F91.049437120720299
I00
tp1632
a(F-0.013349766757093651
F51.009802979427398
I00
tp1633
a(F-0.019605330857205061
F11
I00
tp1634
a(F1.4377290647863399
F128.1327436684316
I00
tp1635
a(F0.55584565803355268
F93.048374515624943
I00
tp1636
a(F0.0054710700316107364
F53.037722424704477
I00
tp1637
a(F-0.82948545648297589
F111.01801655587259
I00
tp1638
a(F0.0063693406186633439
F70.710678118654755
I00
tp1639
a(F-0.023251622810462891
F30.413812651491099
I00
tp1640
a(F0.80864978620791117
F174
I00
tp1641
a(F0
F134
I00
tp1642
a(F0
F94
I00
tp1643
a(F0
F54
I00
tp1644
a(F0
F14
I00
tp1645
a(F1.3072324432118592
F65.253352404301808
I00
tp1646
a(F0.62668038412099936
F29.154759474226502
I00
tp1647
a(F0.0488906719056037
F112.29425630903836
I00
tp1648
a(F-0.027617285881542664
F80.622577482985491
I00
tp1649
a(F0.76456784336123107
F67.896980787071826
I00
tp1650
a(F0.78539816339744828
F59.396969619669989
I00
tp1651
a(F0.78539816339744828
F59.396969619669989
I00
tp1652
a(F0.78539816339744828
F59.396969619669989
I00
tp1653
a(F0.78539816339744828
F59.396969619669989
I00
tp1654
a(F0.78539816339744828
F59.396969619669989
I00
tp1655
a(F0.78539816339744828
F59.396969619669989
I00
tp1656
a(F0.78539816339744828
F59.396969619669989
I00
tp1657
a(F0.78539816339744828
F59.396969619669989
I00
tp1658
a(F-1.8925468811915387
F72.73238618387272
I00
tp1659
a(F-1.8925468811915387
F72.73238618387272
I00
tp1660
a(F-1.4112036571030009
F55.443665102516448
I00
tp1661
a(F-1.0471975511965983
F23
I00
tp1662
a(F-2.1005495649144104
F128.63125592172378
I00
tp1663
a(F-1.2086638347751282
F105.89145385724005
I00
tp1664
a(F-0.27020255134679783
F84.148677945645701
I00
tp1665
a(F-0.02283666988262123
F45.276925690687087
I00
tp1666
a(F1.5824308293679596
F36.069377593742864
I00
tp1667
a(F2.0376275622957234
F48.270073544588683
I00
tp1668
a(F1.3755015969679087
F36.235341863986875
I00
tp1669
a(F0.81663799682771643
F12
I01
tp1670
a(F0.35277972846621797
F234.43762496664223
I00
tp1671
a(F0.0029933488642752692
F195.2255106280939
I00
tp1672
a(F0.0067711599340141149
F155.08062419270823
I00
tp1673
a(F0.0002790957225888846
F115.52056094046635
I00
tp1674
a(F0.00056980050813448813
F75.960516059331766
I00
tp1675
a(F0.011877689360725974
F35.468295701936398
I00
tp1676
a(F0.59710661046040236
F79.881161734166085
I00
tp1677
a(F0.031689675955030694
F39.11521443121589
I00
tp1678
a(F-0.8777589922081499
F127.01181047445942
I00
tp1679
a(F0.0009081000046471388
F86.700634369074834
I00
tp1680
a(F-0.00024342745380856456
F47.381430961928537
I00
tp1681
a(F1.388761141807147
F127.1927670899568
I00
tp1682
a(F0.42922313110217303
F92.048900047746358
I00
tp1683
a(F-0.013368746018246114
F52.009614495783374
I00
tp1684
a(F0.6129095624292864
F352.0227265390688
I00
tp1685
a(F0.050979073462953384
F242.39018131929353
I00
tp1686
a(F-0.046223759538775777
F272.40594707164524
I00
tp1687
a(F-0.0011372785695296095
F232.40697063556419
I00
tp1688
a(F-0.001610124511482347
F192.40841977418765
I00
tp1689
a(F0.0028193817751938077
F153.00326793895613
I00
tp1690
a(F-0.0023134718703263779
F113.00442469213318
I00
tp1691
a(F-0.020632745269085984
F74.632432628181164
I00
tp1692
a(F-0.11467231532781064
F37.589892258425003
I00
tp1693
a(F0.78889465264517877
F64.560049566275893
I00
tp1694
a(F0.0042552934644763951
F43.68065933568311
I01
tp1695
a(F0.76456784336123107
F67.896980787071826
I00
tp1696
a(F0.76456784336123107
F67.896980787071826
I00
tp1697
a(F0.76456784336123107
F67.896980787071826
I00
tp1698
a(F0.76456784336123107
F67.896980787071826
I00
tp1699
a(F0.76456784336123107
F67.896980787071826
I00
tp1700
a(F0.76456784336123107
F67.896980787071826
I00
tp1701
a(F0.76456784336123107
F67.896980787071826
I00
tp1702
a(F0.76456784336123107
F67.896980787071826
I00
tp1703
a(F0.76456784336123107
F67.896980787071826
I00
tp1704
a(F0.76456784336123107
F67.896980787071826
I00
tp1705
a(F-1.8157749899217608
F65.969690009882569
I00
tp1706
a(F-1.3996568261964926
F46.861498055439924
I00
tp1707
a(F-1.3500824195715697
F16.763054614240211
I00
tp1708
a(F-2.0815471158972474
F132.96992141082131
I00
tp1709
a(F-1.2146829876685681
F105.11898020814318
I00
tp1710
a(F-0.22955250536389693
F65.79513659838392
I00
tp1711
a(F-0.0052264332479894371
F26.172504656604801
I00
tp1712
a(F1.6908542329960348
F38.600518131237564
I00
tp1713
a(F2.6077941534765152
F53.600373133029585
I00
tp1714
a(F2.2084868562602971
F66.309878600401618
I00
tp1715
a(F1.6894042581784543
F53.600373133029585
I00
tp1716
a(F1.4731609494054974
F31.575306807693888
I00
tp1717
a(F1.1142383366373201
F37.643060449437421
I00
tp1718
a(F0.99392269493104823
F51.419840528729765
I01
tp1719
a(F-2.0939171382962076
F74.040529441651074
I00
tp1720
a(F-1.6111100834924343
F63.7808748764079
I00
tp1721
a(F-1.2018384327622313
F37.12142238654117
I00
tp1722
a(F1.298231230200102
F27.018512172212592
I00
tp1723
a(F0.16369880033067341
F80.622577482985491
I00
tp1724
a(F4.4408920985006262e-16
F40.311288741492746
I00
tp1725
a(F-0.3288763245230748
F214.67417171145672
I00
tp1726
a(F-0.0027438062154643283
F174.8656627242753
I00
tp1727
a(F0.0022939636907017835
F134.61797799699713
I00
tp1728
a(F-0.0052495012578015476
F94.810336989170125
I00
tp1729
a(F0.0034795916015069039
F54.561891462814962
I00
tp1730
a(F0.02304329568035568
F14.317821063276353
I00
tp1731
a(F-0.80406004381543461
F100.56838469419701
I00
tp1732
a(F-0.24366862020817948
F55.226805085936306
I01
tp1733
a(F1.1071487177940904
F107.33126291998991
I00
tp1734
a(F1.1071487177940904
F107.33126291998991
I00
tp1735
aa(lp1736
(F0.98279372324732961
F115.37764081484765
I00
tp1737
a(F0.003731325966658261
F74.330343736592525
I00
tp1738
a(F-0.048477557421274575
F37.20215047547655
I00
tp1739
a(F-1.3525543663774986
F81.939001702485982
I00
tp1740
a(F-0.45416620208808389
F67.416615162732697
I00
tp1741
a(F-0.014585675470277337
F27.459060435491963
I00
tp1742
a(F-2.3001268330445099
F65.253352404301808
I00
tp1743
a(F-1.5337328366254801
F58.008620049092706
I00
tp1744
a(F-0.51925400995629545
F20.024984394500787
I00
tp1745
a(F1.6556243040716287
F172.10461934532728
I00
tp1746
a(F0.76676865516804771
F140.61649974309557
I00
tp1747
a(F0.089597727451796949
F121.8400590938793
I00
tp1748
a(F0.035139080051688421
F83.168503653726987
I00
tp1749
a(F0.070370426821175336
F47.539457296018853
I00
tp1750
a(F0.4738513364947603
F92.195444572928878
I00
tp1751
a(F-0.036793204146487568
F53.075418038862395
I00
tp1752
a(F-0.64175452435145841
F142.39382009062049
I00
tp1753
a(F0.0023233523864312211
F102.77159140540736
I00
tp1754
a(F-0.010353516605531077
F62.968245965724662
I00
tp1755
a(F0.038468521613641116
F23.53720459187964
I00
tp1756
a(F1.3021025639917152
F128.191263352851
I00
tp1757
a(F0.34144215651950027
F94.047860156411858
I00
tp1758
a(F-0.013387662417013502
F54.009258465563107
I00
tp1759
a(F0.57270680226079662
F172.23530416264836
I00
tp1760
a(F0.034261835910423422
F133.22161986704711
I00
tp1761
a(F0.0009601533295264808
F93.813645062965122
I00
tp1762
a(F-0.0018097707971422849
F53.009433122794285
I00
tp1763
a(F0.34002557303278191
F107.07474025184464
I00
tp1764
a(F0.0099361896930210136
F67.675697262754525
I00
tp1765
a(F0.018297204335234518
F27.459060435491963
I00
tp1766
a(F-2.3450217707536058
F55.317266743757322
I00
tp1767
a(F-1.9801407744317556
F58.137767414994535
I00
tp1768
a(F-1.4520893374816812
F28.844410203711913
I00
tp1769
a(F1.4852220096833459
F180.23595645708434
I00
tp1770
a(F0.55753093134854659
F144.91721774861674
I00
tp1771
a(F-0.0045796212385300628
F105.47511554864494
I00
tp1772
a(F0.0028943479235357117
F65.513357416636794
I00
tp1773
a(F0.01194686288773017
F25.553864678361276
I00
tp1774
a(F0.54897418118604158
F131.01526628603247
I00
tp1775
a(F-0.0045137157556789376
F93.005376188691372
I00
tp1776
a(F-0.010752273791101885
F53
I00
tp1777
a(F8.8817841970012523e-16
F13
I00
tp1778
a(F1.4610034096408739
F127.76932339180638
I00
tp1779
a(F0.59953941186419346
F92.265920035514739
I00
tp1780
a(F0.038935969151004723
F52.345009313209601
I00
tp1781
a(F-0.90027476881434731
F106.06601717798213
I00
tp1782
a(F0
F66.468037431535464
I00
tp1783
a(F0
F26.870057685088806
I00
tp1784
a(F0.78539816339744828
F174
I00
tp1785
a(F0
F134
I00
tp1786
a(F-1.297787623708186
F51.923019942988681
I00
tp1787
a(F-0.83165155662207546
F23.086792761230392
I01
tp1788
a(F-0.23236671924680774
F11.661903789690601
I01
tp1789
a(F0.98279372324732961
F115.37764081484765
I00
tp1790
a(F0.98279372324732961
F115.37764081484765
I00
tp1791
a(F0.98279372324732961
F115.37764081484765
I00
tp1792
a(F0.98279372324732961
F115.37764081484765
I00
tp1793
a(F1.2490457723982544
F50.596442562694072
I00
tp1794
a(F1.2490457723982544
F50.596442562694072
I00
tp1795
a(F1.4288992721907325
F113.13708498984761
I00
tp1796
a(F1.4288992721907325
F113.13708498984761
I00
tp1797
a(F1.4288992721907325
F113.13708498984761
I00
tp1798
a(F1.4288992721907325
F113.13708498984761
I00
tp1799
a(F1.4288992721907325
F113.13708498984761
I00
tp1800
a(F0.57550017405647225
F77.103826104804938
I00
tp1801
a(F0.002100101917795083
F37.054014627297811
I00
tp1802
a(F-2.0296896134559486
F121.85236969382254
I00
tp1803
a(F-1.1476407396739781
F92.649878575203758
I00
tp1804
a(F-0.18147944622214895
F52.801515129776341
I00
tp1805
a(F0.022280435029046419
F13.601470508735444
I00
tp1806
a(F0.51813906524153763
F36.221540552549669
I00
tp1807
a(F-2.8041365843620123
F93.391648448884339
I00
tp1808
a(F-0.45978226734037353
F64.070273918565391
I00
tp1809
a(F0.074611349509390301
F36.013886210738214
I00
tp1810
a(F0.0092494792805091208
F27.018512172212592
I00
tp1811
a(F0.015562945737011447
F19.026297590440446
I00
tp1812
a(F0.0061727611047812658
F17.029386365926403
I00
tp1813
a(F3.0646570158010924
F55.009090157900268
I00
tp1814
a(F2.1283955998656161
F43.185645763378368
I00
tp1815
a(F1.1239694424663762
F22.203603311174518
I00
tp1816
a(F1.0246819245739847
F113.17685275708986
I00
tp1817
a(F0.61933040172187637
F113.99122773266372
I00
tp1818
a(F-0.77113456343434805
F92.200867674876037
I00
tp1819
a(F-0.011913980226818222
F52.801515129776341
I00
tp1820
a(F2.3891269857016377
F234.26907606425564
I00
tp1821
a(F1.5067349645856645
F245.40578640284747
I00
tp1822
a(F0.5266987154214342
F208.38665984174708
I00
tp1823
a(F-0.0021413243502705903
F168.07736313971611
I00
tp1824
a(F0.003714003350252959
F128.15615474880636
I00
tp1825
a(F-0.0033753646906609092
F87.846456957580259
I00
tp1826
a(F0.010213421573053161
F47.927027865287037
I00
tp1827
a(F0.49719558395815966
F89.022469073824283
I00
tp1828
a(F-0.0056369188746305809
F49.819674828324601
I00
tp1829
a(F3.1350795020944879
F92.455394650609762
I00
tp1830
a(F2.3401507661406944
F106.51291001564083
I00
tp1831
a(F1.6775899447920182
F97.082439194738001
I00
tp1832
a(F0.68675651212851063
F66.007575322836999
I00
tp1833
a(F0.023292234146417901
F26.019223662515376
I00
tp1834
a(F-0.80821702479815904
F90.520715861066847
I00
tp1835
a(F-0.0015401527976166562
F50.209560842532767
I00
tp1836
a(F-3.0973766110448437
F182.03571078225283
I00
tp1837
a(F-2.4302292326126977
F105.09519494249011
I00
tp1838
a(F-1.7611739967387017
F105.38500842150178
I00
tp1839
a(F-2.4202364617371486
F20.024984394500787
I00
tp1840
a(F-1.389648678594432
F15.033296378372908
I00
tp1841
a(F1.2949133631728857
F76
I00
tp1842
a(F0.65917205538999069
F60.00833275470999
I00
tp1843
a(F0.43859986640772686
F98.493654617949886
I00
tp1844
a(F-0.004489695268971694
F58.796258384356399
I00
tp1845
a(F0.01660364011476867
F18.439088914585774
I00
tp1846
a(F-0.72910279265866951
F128.1327436684316
I00
tp1847
a(F0.0024604519769440003
F88.814413244698073
I00
tp1848
a(F0.0092847842534382607
F48.507731342539614
I00
tp1849
a(F-0.020457503692177248
F8.0622577482985491
I00
tp1850
a(F1.4464413322481349
F126
I00
tp1851
a(F0.43293888839755379
F89.050547443572739
I00
tp1852
a(F-0.013289776659478392
F49.010203019371382
I00
tp1853
a(F0.61680295499404592
F349.60692212826677
I00
tp1854
a(F0.044703328944987852
F239.57671005337727
I00
tp1855
a(F-0.046570562099608637
F269.60897611170145
I00
tp1856
a(F-0.0014215320365811301
F229.61053982777011
I00
tp1857
a(F0.0022210482563096434
F190.20515240129538
I00
tp1858
a(F0.0020058388836110552
F149.40214188558343
I00
tp1859
a(F-0.0019577827540886439
F109.40292500660117
I00
tp1860
a(F-0.044412454333710993
F73.498299300051841
I00
tp1861
a(F-0.076227163082524196
F34.481879299133332
I00
tp1862
a(F0.77269236686633036
F64.560049566275893
I00
tp1863
a(F-0.0012391567387401992
F25
I00
tp1864
a(F-0.50160405418912068
F135.76450198781711
I00
tp1865
a(F-0.094951706342756292
F29.832867780352597
I01
tp1866
a(F0.14866343564598861
F65.855903304107827
I00
tp1867
a(F-0.31996377845415758
F40.311288741492746
I01
tp1868
a(F2.5939371555885815
F526.2138348618364
I00
tp1869
a(F1.5790512511920234
F526.00380226762616
I00
tp1870
a(F0.53212473417781592
F491.00407330285969
I00
tp1871
a(F0.00036126350344201086
F451.00443456799843
I00
tp1872
a(F0.00043158090811656891
F411.00486615124157
I00
tp1873
a(F0.00052464171990695974
F371.00539079641419
I00
tp1874
a(F0.00065143918149423996
F331.00604224092348
I00
tp1875
a(F0.00083052148046958152
F291.00687277107392
I00
tp1876
a(F-0.0028887013553173801
F251.0019920239678
I00
tp1877
a(F0.0007552583436134519
F211.00236965494014
I00
tp1878
a(F0.0011085855444221693
F171.00292395160966
I00
tp1879
a(F0.0017855529636046086
F131.00381673829202
I00
tp1880
a(F-0.0076334395174932901
F91
I00
tp1881
a(F0
F51
I00
tp1882
a(F2.8966139904629289
F70.092795635500224
I00
tp1883
a(F-3.1153365943383164
F39.824615503479755
I00
tp1884
a(F-2.068139043141719
F39.824615503479755
I00
tp1885
a(F-2.2733122728712889
F95.524865872714003
I00
tp1886
aa(lp1887
(F1.2924966677897851
F116.48175822848829
I00
tp1888
a(F0.36899823016709821
F77.929455278476055
I00
tp1889
a(F0.073696446275970384
F37.12142238654117
I00
tp1890
a(F1.3407021453445864
F58.821764679410968
I00
tp1891
a(F0.6520859780305126
F42.047592083257278
I00
tp1892
a(F-0.42057082507704457
F24.698178070456937
I00
tp1893
a(F2.1138005596046501
F236.40854468483155
I00
tp1894
a(F1.2421420779800716
F239.1359446005556
I00
tp1895
a(F-0.20673183649941418
F89.140338792266206
I00
tp1896
a(F0.02536125663070754
F65.030761951556428
I00
tp1897
a(F-0.0092191610528211676
F25.019992006393608
I00
tp1898
a(F0.90042361411717842
F188.62131374794313
I00
tp1899
a(F0.00099679568267641017
F148.92279879185725
I00
tp1900
a(F0.0087201698335013234
F108.57716150277645
I00
tp1901
a(F0.032968845691475845
F66.219332524573218
I00
tp1902
a(F-0.036828475648862824
F26.248809496813376
I00
tp1903
a(F-0.77638147351742681
F122.494897852931
I00
tp1904
a(F-0.0037152153594735005
F81.301906496711382
I00
tp1905
a(F0.011047624575787118
F41.194659848091959
I00
tp1906
a(F1.4656067872358651
F126.00396819148197
I00
tp1907
a(F0.45966657322498072
F90.049986118821806
I00
tp1908
a(F-0.013323661905096706
F50.009999000199947
I00
tp1909
a(F-0.033329877267295416
F75.006666370396701
I00
tp1910
a(F0.013332543294144905
F35
I00
tp1911
a(F1.0040671092713902
F208.61447696648477
I00
tp1912
a(F0.0018248154927298366
F168.11900546934007
I00
tp1913
a(F-0.0036201457002635884
F128.16005617976296
I00
tp1914
a(F0.042132183504620002
F85.586213843118443
I00
tp1915
a(F0.012786359503671019
F44.77722635447622
I00
tp1916
a(F-2.191359489053502
F82.764726786234249
I00
tp1917
a(F-2.0519553619835564
F59.481089431852205
I00
tp1918
a(F-2.0865326281291927
F56.008927859761783
I00
tp1919
a(F-1.8003600833565945
F50.24937810560445
I00
tp1920
a(F-1.668796471198188
F34.132096331752024
I00
tp1921
a(F-1.870644692399845
F21.587033144922902
I00
tp1922
a(F-2.007737162884224
F17.204650534085253
I00
tp1923
a(F-0.90604815544689465
F76.837490849194182
I00
tp1924
a(F0.20458293608459188
F196.02550854416882
I00
tp1925
a(F0.014735500929890399
F156.48642113614844
I00
tp1926
a(F0.00065731804731239407
F116.66190466471906
I00
tp1927
a(F3.1090460109716709
F27.658633371878661
I00
tp1928
a(F-2.6685565891636713
F24.083189157584592
I00
tp1929
a(F-1.0417950526737512
F27.294688127912362
I01
tp1930
a(F1.0495852633527152
F24.207436873820409
I00
tp1931
a(F0.6706771309867019
F126
I00
tp1932
a(F0
F86
I00
tp1933
a(F0
F46
I00
tp1934
a(F1.3916358275844809
F129.06587465321729
I00
tp1935
a(F0.49169471111327656
F94.047860156411858
I00
tp1936
a(F0.013387662417013502
F54.009258465563107
I00
tp1937
a(F-0.77317098658214656
F112.43220179290273
I00
tp1938
a(F-0.0036114413352814623
F71.421285342676384
I00
tp1939
a(F-0.012317898738730459
F31.827660925679098
I00
tp1940
a(F0.80761672872416757
F174
I00
tp1941
a(F0
F134
I00
tp1942
a(F1.4021993871854672
F95.351979528481735
I00
tp1943
a(F0.54026389931224017
F60.00833275470999
I00
tp1944
a(F0.033293272008001917
F20.024984394500787
I00
tp1945
a(F-1.6102287954851142
F95.005263012108969
I00
tp1946
a(F-0.60580405375549562
F62.032249677083293
I00
tp1947
a(F0.032246882435253976
F22
I00
tp1948
a(F-1.5707963267948966
F32
I00
tp1949
a(F-1.8494164392663315
F16.492422502470642
I00
tp1950
a(F-2.4142491971076381
F123.5556554755791
I00
tp1951
a(F-1.5790606014545485
F121.00413216084813
I00
tp1952
a(F-3.0411683762113366
F30.805843601498726
I00
tp1953
a(F-2.9819728345011391
F44.944410108488462
I00
tp1954
a(F-3.0035866299322755
F36.345563690772494
I00
tp1955
a(F-2.6224695508195568
F55.569775957799216
I00
tp1956
a(F-2.193799470087729
F68.029405406779802
I00
tp1957
a(F-1.5707963267948983
F62
I00
tp1958
a(F-1.5579596447884663
F43.046486500061768
I00
tp1959
a(F-2.1310946461802276
F57.706152185014034
I00
tp1960
a(F-1.3499675570655507
F50.219518117958877
I00
tp1961
a(F-2.8951766675712411
F45.967379738244816
I00
tp1962
a(F-2.3911950299376108
F133.41664064126334
I00
tp1963
a(F-1.5784884827705481
F130.00384609695206
I00
tp1964
a(F-0.53412470263002731
F95.005263012108969
I00
tp1965
a(F0.010525927031725502
F55
I00
tp1966
a(F0.63976978282662555
F160.80111939908875
I00
tp1967
a(F0.042546772048122516
F123.69316876852982
I00
tp1968
a(F0.0017351052570324654
F83.868945385047027
I00
tp1969
a(F-2.635354364039042
F59.236812878479547
I00
tp1970
a(F-2.1711415373587255
F71.847059786744225
I00
tp1971
a(F-1.7004896852579094
F65.030761951556428
I00
tp1972
a(F-1.1229109590952877
F54.12947441089743
I00
tp1973
a(F-0.70982810311307842
F52.354560450833695
I01
tp1974
a(F-1.421027593873917
F97.8008179924892
I00
tp1975
a(F-0.60809070367597329
F62.241465278381739
I00
tp1976
a(F0.88289064081594404
F73.763134423640111
I00
tp1977
a(F0.00040783031996616259
F33.241540277189323
I00
tp1978
a(F-0.96230036826631249
F100.56838469419701
I00
tp1979
a(F-0.0022690398660394351
F61.351446600711867
I00
tp1980
a(F0.004615351843841875
F21.189620100417091
I00
tp1981
a(F-0.6256502293792936
F115.80155439371269
I00
tp1982
a(F0.0051813007842382852
F75
I00
tp1983
a(F-0.0022573325089902951
F35.440090293338699
I00
tp1984
a(F-1.2266707255146243
F86.145226217127089
I00
tp1985
a(F-0.32244912733070263
F47.169905660283021
I00
tp1986
a(F0.80843211098279033
F80.05623023850174
I00
tp1987
a(F-0.0094396189209104975
F39.698866482558415
I00
tp1988
a(F0.59424622835646224
F138.75157656761959
I00
tp1989
a(F-0.002028982722956485
F99.458534073250846
I00
tp1990
a(F0.043994621182561033
F59.439044406854322
I00
tp1991
a(F-0.036829953604416765
F19.646882704388499
I00
tp1992
a(F-2.884268938618705
F592
I00
tp1993
a(F-2.7901119886507706
F46.61544808322666
I00
tp1994
a(F-2.3909639229391813
F33.015148038438355
I00
tp1995
a(F-1.3534512989470984
F25.019992006393608
I00
tp1996
a(F0.3865715704735635
F21.400934559032695
I00
tp1997
a(F0.91621056701271275
F575.00086956455982
I00
tp1998
a(F-0.00013002802030559479
F535.00093457862295
I00
tp1999
a(F0.0018691567017148358
F495
I00
tp2000
a(F0
F455
I00
tp2001
a(F0
F415
I00
tp2002
a(F0
F375
I00
tp2003
a(F-1.2082520895303901
F31.016124838541646
I00
tp2004
a(F-1.3089969389957474
F45.254833995939045
I00
tp2005
a(F-1.2596295717053405
F52.172789842982326
I00
tp2006
a(F-2.9942497712699017
F415.50210589117353
I00
tp2007
a(F-1.993561763729387
F427.16975548369527
I00
tp2008
a(F3.0629040830531267
F38.832975677895199
I00
tp2009
a(F-2.1587989303424644
F57.688820407423826
I00
tp2010
a(F1.2924966677897851
F116.48175822848829
I00
tp2011
a(F1.2924966677897851
F116.48175822848829
I00
tp2012
a(F1.2924966677897851
F116.48175822848829
I00
tp2013
a(F1.8157749899217608
F65.969690009882569
I00
tp2014
a(F1.8157749899217608
F65.969690009882569
I00
tp2015
a(F1.8157749899217608
F65.969690009882569
I00
tp2016
a(F1.8157749899217608
F65.969690009882569
I00
tp2017
a(F1.8157749899217608
F65.969690009882569
I00
tp2018
a(F1.8157749899217608
F65.969690009882569
I00
tp2019
a(F1.8781937999177183
F66.098411478642959
I00
tp2020
a(F0.92978757801729905
F101.23734488813898
I00
tp2021
a(F-0.0012970161339165287
F60.926184846911269
I00
tp2022
a(F0.037482436691661292
F21.023796041628639
I00
tp2023
a(F-2.4180623360567246
F121.85236969382254
I00
tp2024
a(F-1.454825352902791
F106.47065323364932
I00
tp2025
a(F-0.4478059184580947
F75.292761936324268
I00
tp2026
a(F-0.011389029190935318
F34.985711369071801
I00
tp2027
a(F0.38844721984228059
F112.29425630903836
I00
tp2028
a(F0.02761728588154222
F72.560319734686942
I00
tp2029
a(F0.061936184550804629
F32.062439083762797
I00
tp2030
a(F-0.63665595246102802
F147.62791064023091
I00
tp2031
a(F-0.0075394399513184496
F107.81465577554843
I00
tp2032
a(F0.004357270899297383
F68.117545463705611
I00
tp2033
a(F-0.60333227783406462
F83.93449827097318
I00
tp2034
a(F0.013092541553286985
F43.68065933568311
I00
tp2035
a(F0.85929649935815
F88.141930997681229
I00
tp2036
a(F0.0065726753047590236
F48.332183894378289
I00
tp2037
aa(lp2038
(F1.1659045405098132
F121.85236969382254
I00
tp2039
a(F0.17482777201439204
F81.93289937503738
I00
tp2040
a(F-0.018402830234312439
F41.785164831552358
I00
tp2041
a(F1.4918646116697127
F50.990195135927848
I00
tp2042
a(F0.74887555481235424
F21.213203435596427
I00
tp2043
a(F2.9237140131361405
F116.45600027478189
I00
tp2044
a(F2.1671716761501774
F130.31116606031887
I00
tp2045
a(F-0.53524550353369005
F85
I00
tp2046
a(F-0.0042249550563981941
F44.553338819890925
I00
tp2047
a(F0.80884545904043392
F105.60303025955268
I00
tp2048
a(F0.14279581535593922
F166.88319268278636
I00
tp2049
a(F-0.0028878393423150683
F126.57408897558773
I00
tp2050
a(F0.057820417906175869
F89.274856482662571
I00
tp2051
a(F-0.0063261695605674184
F49.578221024962161
I00
tp2052
a(F-0.66394907197550257
F135.14806694880988
I00
tp2053
a(F0.00038729664988412793
F95.524865872714003
I00
tp2054
a(F0.00093632931438403233
F55.901699437494742
I00
tp2055
a(F-0.047301967495803954
F15.132745950421556
I00
tp2056
a(F1.4382447944982228
F126
I00
tp2057
a(F0.42474235064764176
F89.050547443572739
I00
tp2058
a(F-0.013289776659478392
F49.010203019371382
I00
tp2059
a(F0.59081034962826262
F167.28717822953436
I00
tp2060
a(F0.0072123140577184941
F127.6401190848708
I00
tp2061
a(F0.0044810598077256181
F87.418533504057365
I00
tp2062
a(F-0.00023826542317761934
F48.010415536631214
I00
tp2063
a(F0.36290844260626987
F99.569071503153026
I00
tp2064
a(F0.0018440884377035616
F59.908263203000637
I00
tp2065
a(F0.0090681768191540613
F20.248456731316587
I00
tp2066
a(F-2.1715982313605089
F85.615419172015976
I00
tp2067
a(F-1.6107501594192388
F77.317527120310828
I00
tp2068
a(F-2.0836677349400827
F25.019992006393608
I00
tp2069
a(F-1.0589103066161529
F16.031219541881399
I00
tp2070
a(F-0.059951166597493888
F9.0553851381374173
I00
tp2071
a(F1.6288704863578509
F76.105190361761785
I00
tp2072
a(F0.85508476650154375
F50.219518117958877
I00
tp2073
a(F0.66591589693376729
F167.73789077009405
I00
tp2074
a(F0.0081044458756958093
F129.46814279968643
I00
tp2075
a(F0.0012062720325323184
F89.643739324059879
I00
tp2076
a(F0.0031347859698120928
F49.819674828324601
I00
tp2077
a(F0.61941479066663652
F134.18271125595876
I00
tp2078
a(F0.052191365587104244
F99
I00
tp2079
a(F0
F59
I00
tp2080
a(F-0.049958395721942495
F20.024984394500787
I00
tp2081
a(F1.5040992870757695
F128.87590930814028
I00
tp2082
a(F0.64788805848790698
F94.260277954183863
I00
tp2083
a(F-0.00039184950972526167
F54.147945482723536
I00
tp2084
a(F-0.85296786043672546
F111.01801655587259
I00
tp2085
a(F0.0035313259693254828
F71.421285342676384
I00
tp2086
a(F0.012317898738730459
F31.827660925679098
I00
tp2087
a(F0.74642139048849199
F179.02513789968157
I00
tp2088
a(F0.01675820758223745
F140
I00
tp2089
a(F-1.2277723863741934
F59.464274989274024
I00
tp2090
a(F-0.6067400074867404
F24.083189157584592
I01
tp2091
a(F0.32811989501530547
F12.369316876852981
I01
tp2092
a(F1.8538921120943916
F13.892443989449804
I00
tp2093
a(F1.5831643901154058
F11.401754250991379
I00
tp2094
a(F0.88536011995817532
F12.041594578792296
I01
tp2095
a(F1.2324727042856365
F23.769728648009426
I00
tp2096
a(F0.44045754370985701
F16
I01
tp2097
a(F0.84415398611317105
F12.041594578792296
I01
tp2098
a(F1.5707963267948966
F12.041594578792296
I00
tp2099
a(F1.4153897936946516
F12.165525060596439
I00
tp2100
a(F0.36819224249805371
F12.165525060596439
I01
tp2101
a(F2.3017030339516138
F12.806248474865697
I00
tp2102
a(F2.4959756425020752
F13.038404810405298
I00
tp2103
a(F2.4528452005768679
F21
I00
tp2104
a(F2.1910458127777188
F29.698484809834994
I00
tp2105
a(F1.9880022476942925
F34.058772731852805
I00
tp2106
a(F1.6050282271834631
F22.671568097509269
I00
tp2107
a(F1.4887888812687127
F12.041594578792296
I00
tp2108
a(F1.2026040842968442
F12.041594578792296
I00
tp2109
a(F0.45542138065509619
F12.083045973594572
I01
tp2110
a(F0.85325498625375218
F12.083045973594572
I01
tp2111
a(F0.30001484755484942
F12.041594578792296
I01
tp2112
a(F0
F12.041594578792296
I01
tp2113
a(F2.3649919171861251
F20.024984394500787
I00
tp2114
a(F1.5264080238978712
F25.317977802344327
I00
tp2115
a(F1.182725265182099
F18.439088914585774
I00
tp2116
a(F0.11751164543144599
F12.041594578792296
I01
tp2117
a(F2.908164631865831
F24.413111231467404
I00
tp2118
a(F2.5074167908582226
F38.897300677553446
I00
tp2119
a(F2.2977592395635229
F51.97114584074513
I00
tp2120
a(F2.0166009428554199
F54.120236510939236
I00
tp2121
a(F1.300199512001968
F40.049968789001575
I00
tp2122
a(F0.58354994219579304
F10.770329614269007
I01
tp2123
a(F-0.35194271927360532
F35.014282800023196
I01
tp2124
a(F0.32020734574514709
F11.704699910719626
I01
tp2125
a(F-0.26562977169546542
F12.041594578792296
I01
tp2126
a(F-0.74418440073912873
F11.401754250991379
I01
tp2127
a(F-1.9812027630589757
F12.529964086141668
I00
tp2128
a(F-1.350210701654067
F12.041594578792296
I00
tp2129
a(F-0.38615438234591082
F12
I01
tp2130
a(F-2.1755758796080773
F82.661962231730257
I00
tp2131
a(F-1.5063924988456283
F68.505474233815804
I00
tp2132
a(F-0.96629345204136774
F37.12142238654117
I00
tp2133
a(F1.4898922276396664
F174
I00
tp2134
a(F0.56526555156258151
F139.04315876734103
I00
tp2135
a(F-0.00072843809959621808
F98.731960377579867
I00
tp2136
a(F-0.0037504086008230964
F59.413803110051795
I00
tp2137
a(F0.52179027831838809
F165.80108564180151
I00
tp2138
a(F0.040926522178345692
F128.68954891520912
I00
tp2139
a(F0.00096187448474882586
F88.865066252155572
I00
tp2140
a(F0.49732568395689558
F99.538937105034435
I00
tp2141
a(F0.064873286507483918
F62.297672508690084
I00
tp2142
a(F-0.03715230357970345
F22.472205054244231
I00
tp2143
a(F-0.87248886287632743
F100.56838469419701
I00
tp2144
a(F0.0031275618188568721
F60.406953242155822
I00
tp2145
a(F0.558599315343562
F51.224993899462788
I01
tp2146
a(F2.7668133054967292
F116.46887996370532
I00
tp2147
a(F0.27941250533253204
F143.40502083260543
I00
tp2148
a(F0.31174230978669248
F115.67627241573788
I00
tp2149
a(F0.17815549265758257
F103.36827366266692
I00
tp2150
a(F-0.0066534629858954197
F63.976558206893252
I00
tp2151
a(F0.0090553799040637983
F24.166091947189145
I00
tp2152
a(F3.0004725996062636
F150.63200191194434
I00
tp2153
a(F2.0984910420387619
F141.43903280212291
I00
tp2154
a(F1.4955607511652671
F46.010868281309364
I00
tp2155
a(F0.091454925990143376
F94.244363226667303
I00
tp2156
a(F0.013422012740091027
F53.758720222862451
I00
tp2157
a(F-0.045423279421576979
F13.928388277184119
I00
tp2158
a(F-1.2036224929766774
F78
I00
tp2159
a(F-0.31302681876209526
F38.470768123342687
I00
tp2160
a(F-0.9125903956237611
F70.710678118654755
I00
tp2161
a(F0.0054944502032165943
F30.886890422961002
I00
tp2162
a(F0.78114286993297188
F64.560049566275893
I00
tp2163
a(F-0.0012391567387401992
F25
I00
tp2164
a(F-0.24197442478086284
F93.648278147545241
I00
tp2165
a(F0.011317220930163074
F52.839379254491625
I00
tp2166
a(F2.9655975095941294
F89.498603341057787
I00
tp2167
a(F2.2811079086716681
F105.62196741208714
I00
tp2168
a(F1.6215770193768337
F100.17983829094555
I00
tp2169
a(F-1.423518847554087
F41.785164831552358
I00
tp2170
a(F-1.646511953109991
F15.033296378372908
I00
tp2171
a(F0.93444683177297083
F328.76283244916846
I00
tp2172
a(F-0.00054812420065974976
F288.56368447883392
I00
tp2173
a(F-0.00072555764521808896
F248.3646512690564
I00
tp2174
a(F-0.00050050045870841942
F209.16022566444127
I00
tp2175
a(F0.0045302368604125398
F168.85792844874061
I00
tp2176
a(F-0.00036823933893703753
F128.65846260545786
I00
tp2177
a(F-0.00070292581340680726
F88.459030064770658
I00
tp2178
a(F0.040770204831572343
F49.091750834534309
I00
tp2179
a(F2.9206170840963797
F71.840100222647237
I00
tp2180
a(F2.1665318337252302
F91.005494339627646
I00
tp2181
a(F2.7191207277640856
F25.019992006393608
I00
tp2182
a(F1.670387079465387
F26.019223662515376
I00
tp2183
a(F-0.93346632693635367
F76.105190361761785
I00
tp2184
a(F-0.052583061610942394
F38
I00
tp2185
a(F-0.46364760900080526
F214.66252583997982
I00
tp2186
a(F0
F174.41330224498358
I00
tp2187
a(F-0.0066444204906894733
F134.61426373159719
I00
tp2188
aa(lp2189
(F1.051650212548374
F128.99612397277679
I00
tp2190
a(F0.0044526613517761326
F88.68483523128404
I00
tp2191
a(F-0.0074811571872275273
F49.739320461783549
I00
tp2192
a(F1.4585096132247601
F43.600458713183279
I00
tp2193
a(F-2.5629821744200711
F112.25417586887359
I00
tp2194
a(F-1.4960984507595576
F114.49454135459908
I00
tp2195
a(F-0.44569484817526961
F89.899944382630181
I00
tp2196
a(F-0.0059959308102479625
F50.089919145472777
I00
tp2197
a(F-2.2999976610377955
F58.309518948453004
I00
tp2198
a(F-1.6572178876296288
F57.008771254956898
I00
tp2199
a(F-0.63412085547421704
F24.020824298928627
I00
tp2200
a(F1.6124389058934847
F174
I00
tp2201
a(F0.72002174006860065
F142.70599146496969
I00
tp2202
a(F-0.0073432212437758437
F102.10778618695051
I00
tp2203
a(F0.14401963034992926
F83.522452071284405
I00
tp2204
a(F-0.0067263559551546948
F42.720018726587654
I00
tp2205
a(F0.67250974276026776
F86.838931361457924
I00
tp2206
a(F-0.0041995800543159767
F46.61544808322666
I00
tp2207
a(F-0.7866543006835558
F132.83448347473634
I00
tp2208
a(F0.007658939297630063
F92.395887354362259
I00
tp2209
a(F-0.0026661134532313113
F52.773099207835045
I00
tp2210
a(F-0.0062304489748807867
F12.165525060596439
I00
tp2211
a(F1.4056476493802696
F126
I00
tp2212
a(F0.39214520552968857
F89.050547443572739
I00
tp2213
a(F-0.013289776659478392
F49.010203019371382
I00
tp2214
a(F0.59081034962826262
F167.28717822953436
I00
tp2215
a(F0.00079977401088582312
F127.06297651164952
I00
tp2216
a(F0.0015406911862303474
F86.838931361457924
I00
tp2217
a(F0.0041995800543155326
F46.61544808322666
I00
tp2218
a(F0.36782350579710466
F99.569071503153026
I00
tp2219
a(F0.0018440884377035616
F59.908263203000637
I00
tp2220
a(F-0.018914339141108183
F19.416487838947599
I00
tp2221
a(F-2.1436157154002462
F85.615419172015976
I00
tp2222
a(F-1.387230817527997
F76.419892698171196
I00
tp2223
a(F-0.38941169981591672
F36.055512754639892
I00
tp2224
a(F0.81540495182993578
F124.19742348374221
I00
tp2225
a(F0.18750340940850574
F110.14535850411491
I00
tp2226
a(F-1.1195550291334602
F49.091750834534309
I00
tp2227
a(F1.5168323332230873
F187.17104476921637
I00
tp2228
a(F0.46999064238479793
F165.14841809717706
I00
tp2229
a(F0.0024201308026499113
F125.09996003196804
I00
tp2230
a(F0.039978687123289447
F87
I00
tp2231
a(F0
F47
I00
tp2232
a(F0
F10
I00
tp2233
a(F1.4377290647863399
F128.1327436684316
I00
tp2234
a(F0.5561959207162519
F92.048900047746358
I00
tp2235
a(F0.0058454449032350198
F52.038447325030752
I00
tp2236
a(F-0.83029227681160478
F109.60383204979651
I00
tp2237
a(F-0.0036491431923533213
F70.007142492748557
I00
tp2238
a(F0.010100666585322049
F29.698484809834994
I00
tp2239
a(F0.78539816339744828
F174
I00
tp2240
a(F0
F134
I00
tp2241
a(F-1.3667783472023483
F59.22837157984339
I00
tp2242
a(F-0.79276626838399977
F30.083217912982647
I01
tp2243
a(F1.4133363264537211
F12.083045973594572
I00
tp2244
a(F1.0590183175349246
F11.401754250991379
I00
tp2245
a(F0.35629468157661082
F12.206555615733702
I01
tp2246
a(F2.1820956856166775
F11.704699910719626
I00
tp2247
a(F2.3216503630123775
F13.45362404707371
I00
tp2248
a(F2.1022196199450427
F21.095023109728988
I00
tp2249
a(F2.1439909714695569
F29.154759474226502
I00
tp2250
a(F1.8580027540115713
F30.083217912982647
I00
tp2251
a(F1.3870184276194655
F17.204650534085253
I00
tp2252
a(F1.7740321836418982
F24.758836806279895
I00
tp2253
a(F1.5743290252047339
F22.090722034374522
I00
tp2254
a(F1.5806404204754116
F12.083045973594572
I00
tp2255
a(F1.3866978555325664
F12.083045973594572
I00
tp2256
a(F0.75702679732226397
F12.041594578792296
I01
tp2257
a(F1.2776248283553633
F97.416631023660429
I00
tp2258
a(F-0.57014213595185659
F52.630789467763066
I00
tp2259
a(F-2.8412020240945868
F59.076221950967721
I00
tp2260
a(F-2.0964981487143977
F72.277243998370608
I00
tp2261
a(F-1.1026029725740183
F56.612719418872643
I00
tp2262
a(F0.030917979563041875
F18.439088914585774
I01
tp2263
a(F-0.026309717252922304
F12.369316876852981
I01
tp2264
a(F-2.3223091602882273
F20.248456731316587
I00
tp2265
a(F-1.3554750703467504
F14.7648230602334
I00
tp2266
a(F-1.0471975511965983
F12.369316876852981
I00
tp2267
a(F0.16183743123842209
F12.041594578792296
I01
tp2268
a(F0.67114383543600908
F72.111025509279784
I00
tp2269
a(F-0.0089283341798371829
F31.064449134018133
I00
tp2270
a(F0.99172205742716635
F174
I00
tp2271
a(F-4.4408920985006262e-16
F134
I00
tp2272
a(F0
F94
I00
tp2273
a(F0
F54
I00
tp2274
a(F0.64350110879328426
F160
I00
tp2275
a(F0.03762544267650858
F122.28654872879518
I00
tp2276
a(F-0.02543092522825674
F82.006097334283623
I00
tp2277
a(F0.55633003028278827
F93.984041198492847
I00
tp2278
a(F0.019478055816527728
F54.083269131959838
I00
tp2279
a(F-0.60270742592541904
F81.60882305241266
I00
tp2280
a(F-0.34500217720710502
F75
I00
tp2281
a(F0.0022573325089902951
F35.440090293338699
I00
tp2282
a(F-0.57502685170988466
F115.80155439371269
I00
tp2283
a(F-0.0075703990771343044
F75.286120898874842
I00
tp2284
a(F0.010494367352382294
F35.440090293338699
I00
tp2285
a(F-1.0021899326079908
F64.560049566275893
I00
tp2286
a(F0.0012391567387401992
F25
I00
tp2287
a(F0.50160405418912068
F135.76450198781711
I00
tp2288
a(F0.0074072719311648605
F95.462034338264544
I00
tp2289
a(F-0.0074072719311648605
F55.154328932550705
I00
tp2290
a(F0.5597969195614243
F125.1718818265508
I00
tp2291
a(F0.068999366854008759
F96.176920308356728
I00
tp2292
a(F-0.0055969564813671546
F55.731499172371095
I00
tp2293
a(F0.037843838916621131
F16.124515496597098
I00
tp2294
a(F-0.28053679173832213
F121.85236969382254
I00
tp2295
a(F-0.0096150882997023679
F81.939001702485982
I00
tp2296
a(F-0.0061564745482494132
F41.629316592997299
I00
tp2297
a(F-3.0083422157208881
F165.80108564180151
I00
tp2298
a(F-1.9657512938800865
F170.20575783445165
I00
tp2299
a(F-0.98446805244578606
F139.86421987055874
I00
tp2300
a(F-0.0020146756451824288
F99.368002898317329
I00
tp2301
a(F0.0011778557568336012
F59.808026217222718
I00
tp2302
a(F0.34528076349055059
F593.05396044542181
I00
tp2303
a(F0.0099248594949035152
F561.00356505106095
I00
tp2304
a(F-0.00027370545187865858
F521.00383875745104
I00
tp2305
a(F-0.0003192274586805155
F481.00415798618621
I00
tp2306
a(F-0.00037713610468870229
F441.0045351240733
I00
tp2307
a(F-1.3577959921145433
F53.150729063673246
I00
tp2308
a(F-1.0059628911092027
F19.235384061671343
I00
tp2309
a(F-1.2104892222635997
F55.443665102516448
I00
tp2310
a(F-2.7146445883760171
F24.596747752497688
I00
tp2311
a(F-2.4093943051853373
F36.400549446402593
I00
tp2312
a(F-2.231839495645584
F43.863424398922618
I00
tp2313
a(F1.051650212548374
F128.99612397277679
I00
tp2314
a(F1.0370881351556349
F127.76932339180638
I00
tp2315
a(F1.3031800220101344
F64.288412641781719
I00
tp2316
a(F1.3031800220101344
F64.288412641781719
I00
tp2317
a(F1.3031800220101344
F64.288412641781719
I00
tp2318
a(F1.3031800220101344
F64.288412641781719
I00
tp2319
a(F1.3031800220101344
F64.288412641781719
I00
tp2320
a(F1.3031800220101344
F64.288412641781719
I00
tp2321
a(F1.3031800220101344
F64.288412641781719
I00
tp2322
a(F1.3031800220101344
F64.288412641781719
I00
tp2323
a(F1.3031800220101344
F64.288412641781719
I00
tp2324
a(F0.63425599677219502
F27.166155414412248
I00
tp2325
a(F-1.5395564933646284
F113.13708498984761
I00
tp2326
a(F-0.73517778143948931
F79.404030124421269
I00
tp2327
a(F0.0012531321761324321
F40.19950248448356
I00
tp2328
a(F-0.052303627937141606
F112.29425630903836
I00
tp2329
a(F-0.0017352486301756009
F71.847059786744225
I00
tp2330
a(F-0.053166419921263586
F82.764726786234249
I00
tp2331
a(F-0.50793462459883187
F140.356688476182
I00
tp2332
a(F0.0072668997240956656
F100.00499987500625
I00
tp2333
a(F-0.006549024757679156
F59.548299723837623
I00
tp2334
a(F-0.64920940174753561
F77.665951355790398
I00
tp2335
a(F0.0054421231441943441
F37.8549864614954
I00
tp2336
a(F0.96216838516091663
F85.615419172015976
I00
tp2337
a(F-0.0092021942305011706
F45.694638635183452
I00
tp2338
a(F0.3508902859091152
F37.054014627297811
I00
tp2339
aa(lp2340
(F1.768191886644777
F81.584312217484552
I00
tp2341
a(F0.39527554791250452
F93.770997648526702
I00
tp2342
a(F0.034261993057808304
F53.235326616824658
I00
tp2343
a(F1.1655108397427529
F62.649820430708338
I00
tp2344
a(F0.21276822394120209
F30.463092423455635
I00
tp2345
a(F-0.41752649298629496
F19.104973174542799
I00
tp2346
a(F2.6146320562422964
F236.78048906107108
I00
tp2347
a(F1.6715129101061557
F253.30021713374035
I00
tp2348
a(F0.31786481965509683
F105.01904589168576
I00
tp2349
a(F-0.0067002641377920114
F81.006172604314543
I00
tp2350
a(F-0.012345051844224741
F41
I00
tp2351
a(F0.82109727607677252
F198.11612756158948
I00
tp2352
a(F0.00032133674986578598
F157.07959765672945
I00
tp2353
a(F0.017183730114301188
F119.67038062946069
I00
tp2354
a(F0.15347903894075809
F89.587945617700157
I00
tp2355
a(F0.031152708973201548
F48.020828814171878
I00
tp2356
a(F-0.80210411631538259
F132.21951444472938
I00
tp2357
a(F0.02120319211349786
F91.678787077491378
I00
tp2358
a(F0.049123627824851912
F52.201532544552748
I00
tp2359
a(F0.44135830730864001
F13.45362404707371
I00
tp2360
a(F0.86036554534767973
F134.03357788255897
I00
tp2361
a(F-0.0035186343176194512
F106.01886624558857
I00
tp2362
a(F0.011428073897104429
F66.030296076876709
I00
tp2363
a(F-0.041282328601507601
F91.005494339627646
I00
tp2364
a(F0.010988568682732236
F51
I00
tp2365
a(F0.96083342978906039
F214.72074888095935
I00
tp2366
a(F-0.00029358384979127905
F174.49641830135081
I00
tp2367
a(F-0.00046948353358144956
F134.27211177307072
I00
tp2368
a(F0.04068550068949861
F92.649878575203758
I00
tp2369
a(F0.0033112461762039302
F52.153619241621193
I00
tp2370
a(F-2.0189926269121283
F77.698133825723247
I00
tp2371
a(F-1.5120421562492126
F64.007812023221035
I00
tp2372
a(F-0.51616744635241574
F28.0178514522438
I00
tp2373
a(F0.96299433068093609
F160
I00
tp2374
a(F0.10308160852270021
F110.78808600206071
I00
tp2375
a(F-0.012164850020129681
F70.49113419430843
I00
tp2376
a(F0.00092936776216667738
F30.528675044947494
I00
tp2377
a(F-0.95257318049052575
F15.033296378372908
I00
tp2378
a(F1.5042281630190724
F120
I00
tp2379
a(F0.49359966773601638
F82.054859697643749
I00
tp2380
a(F-0.01276402972847146
F42.01190307520001
I00
tp2381
a(F1.398486412665549
F128.41339493993607
I00
tp2382
a(F0.49979374941322874
F92
I00
tp2383
a(F0
F52
I00
tp2384
a(F-0.79821797387034898
F110.3177229641729
I00
tp2385
a(F0.0027191438875786567
F70.007142492748557
I00
tp2386
a(F-0.013150956225140842
F30.413812651491099
I00
tp2387
a(F0.80864978620791117
F174
I00
tp2388
a(F0
F134
I00
tp2389
a(F-1.297787623708186
F51.923019942988681
I00
tp2390
a(F-0.90410515271066316
F16.15549442140351
I01
tp2391
a(F0.29736514522392277
F12.041594578792296
I01
tp2392
a(F-2.677945044588987
F35.777087639996637
I00
tp2393
a(F-2.8632929945846817
F36.400549446402593
I00
tp2394
a(F-2.8526172435972263
F38.600518131237564
I00
tp2395
a(F1.8130049139045168
F87.555696559390128
I00
tp2396
a(F1.8130049139045168
F87.555696559390128
I00
tp2397
a(F1.8130049139045168
F87.555696559390128
I00
tp2398
a(F1.8130049139045168
F87.555696559390128
I00
tp2399
a(F1.8130049139045168
F87.555696559390128
I00
tp2400
a(F1.8130049139045168
F87.555696559390128
I00
tp2401
a(F1.8130049139045168
F87.555696559390128
I00
tp2402
a(F1.8130049139045168
F87.555696559390128
I00
tp2403
a(F1.8130049139045168
F87.555696559390128
I00
tp2404
a(F1.8130049139045168
F87.555696559390128
I00
tp2405
a(F1.2007263481352908
F65.436992595931542
I00
tp2406
a(F0.39612082975211838
F26.40075756488817
I00
tp2407
a(F-2.3584224850204452
F144.25671561490648
I00
tp2408
a(F-1.5943337238700748
F139.58868148958209
I00
tp2409
a(F-0.73851741768297785
F107.2240644631605
I00
tp2410
a(F-0.0026055892762446575
F68.007352543677214
I00
tp2411
a(F0.01175787609543244
F27.513632984395208
I00
tp2412
a(F-2.631275197699245
F96.509066931558294
I00
tp2413
a(F-0.24387474294594114
F56.080299571239813
I00
tp2414
a(F-0.054169602373505654
F37.215588131856791
I00
tp2415
a(F-0.029376303477366861
F29.274562336608895
I00
tp2416
a(F-0.0048308802939764917
F28.284271247461902
I00
tp2417
a(F-2.9090357117848837
F44.181444068749045
I00
tp2418
a(F-1.9837378812193001
F32.015621187164243
I00
tp2419
a(F-0.99596038379317964
F11.045361017187261
I00
tp2420
a(F1.2153506650522381
F101.9803902718557
I00
tp2421
a(F0.87020179880372694
F110.60289327137876
I00
tp2422
a(F-0.84054439212500887
F81.541400527584756
I00
tp2423
a(F0.0032210723154264542
F41.880783182743848
I00
tp2424
a(F2.3280271205638643
F245.79056125083403
I00
tp2425
a(F1.4267295137998408
F256.14449047363871
I00
tp2426
a(F0.43574971970287457
F219.49259668608414
I00
tp2427
a(F-0.0015984154449286692
F179.56892826989863
I00
tp2428
a(F-0.0025123571322875904
F139.64598096615597
I00
tp2429
a(F-0.00086981711899625225
F98.792712281827747
I00
tp2430
a(F0.0075186553123041122
F59.236812878479547
I00
tp2431
a(F0.46117032257384549
F100.56838469419701
I00
tp2432
a(F0.0024772864269602124
F60.207972893961475
I00
tp2433
a(F-0.026508940280468796
F21.931712199461309
I00
tp2434
a(F-0.68457778382414514
F128.1327436684316
I00
tp2435
a(F0.0039989123016308525
F87.823687009826685
I00
tp2436
a(F-0.012711179763425839
F48.373546489791295
I00
tp2437
a(F0
F8.0622577482985491
I00
tp2438
a(F1.4464413322481349
F126
I00
tp2439
a(F0.43293888839755379
F89.050547443572739
I00
tp2440
a(F-0.013289776659478392
F49.010203019371382
I00
tp2441
a(F-0.033918021699866685
F74.006756448313553
I00
tp2442
a(F0.013512691013328748
F34
I00
tp2443
a(F0.99478355635094395
F115.66330446602328
I00
tp2444
a(F-0.011989833103614789
F75.716576784743779
I00
tp2445
a(F0.023433209879467398
F35.510561809129406
I00
tp2446
a(F0.56456939366809999
F78
I00
tp2447
a(F-1.4327903031373772
F36.345563690772494
I00
tp2448
a(F-0.077806411737045611
F125.23977004130916
I00
tp2449
a(F0.0021497303084130337
F85.428332536694171
I00
tp2450
a(F-0.013988724775769956
F45.188494110780013
I00
tp2451
a(F0.79184078019389492
F68.007352543677214
I00
tp2452
a(F0.023251622810462891
F28.460498941515414
I00
tp2453
a(F-0.46364760900080615
F135.76450198781711
I00
tp2454
a(F0
F96.166522241370458
I00
tp2455
a(F0
F55.154328932550705
I00
tp2456
a(F-0.48377911713120891
F94.254973343585434
I00
tp2457
a(F-0.077384295157143512
F58.463663928973865
I00
tp2458
a(F-0.0055658052351539311
F18.439088914585774
I00
tp2459
a(F-0.21866894587394192
F32
I00
tp2460
a(F-0.26356388358303739
F65.253352404301808
I00
tp2461
a(F-0.0094448195036731519
F25.96150997149434
I00
tp2462
a(F-1.1434688477820669
F91.082380293885606
I00
tp2463
a(F-0.17231893199031045
F51.156622249714651
I00
tp2464
a(F2.8834680132760369
F44.721359549995796
I00
tp2465
a(F2.4464505749944765
F67.119296778199342
I00
tp2466
a(F1.7413382911525961
F54.451813560247928
I00
tp2467
a(F1.5210888441123789
F35.014282800023196
I00
tp2468
a(F1.7711452987450542
F16.492422502470642
I00
tp2469
a(F-1.9565812706176866
F41.976183723630712
I00
tp2470
a(F1.768191886644777
F81.584312217484552
I00
tp2471
a(F1.768191886644777
F81.584312217484552
I00
tp2472
a(F1.7731179551732001
F79.624116949577527
I00
tp2473
a(F1.8004387690800314
F79.075912893876861
I00
tp2474
a(F1.8004387690800314
F79.075912893876861
I00
tp2475
a(F1.8004387690800314
F79.075912893876861
I00
tp2476
a(F1.8004387690800314
F79.075912893876861
I00
tp2477
a(F1.8004387690800314
F79.075912893876861
I00
tp2478
a(F1.8004387690800314
F79.075912893876861
I00
tp2479
a(F1.8004387690800314
F79.075912893876861
I00
tp2480
a(F1.8004387690800314
F79.075912893876861
I00
tp2481
a(F1.2590385432738049
F56.639209034025185
I00
tp2482
a(F0.62897322161736913
F19.697715603592208
I00
tp2483
a(F1.8471236017699617
F113.13708498984761
I00
tp2484
a(F0.96429123376335379
F89.022469073824283
I00
tp2485
a(F-0.0020627978992875384
F49.010203019371382
I00
tp2486
a(F0.066333007989447523
F23.086792761230392
I00
tp2487
a(F2.5251010767942947
F128.63125592172378
I00
tp2488
a(F1.7313294887421451
F139.28388277184121
I00
tp2489
a(F0.91544459674608625
F111.11255554616679
I00
tp2490
aa(lp2491
(F1.5707963267948966
F80
I00
tp2492
a(F0.23115578814626225
F97.123632551506233
I00
tp2493
a(F-0.0073330826479427458
F57.56735185849702
I00
tp2494
a(F1.2126837917126663
F55.605755097831377
I00
tp2495
a(F0.10454484607665426
F21.2602916254693
I00
tp2496
a(F-2.734563287972005
F127.12985487288185
I00
tp2497
a(F-1.7804568890566541
F129.46814279968643
I00
tp2498
a(F-0.83078882159960443
F103.83159442096611
I00
tp2499
a(F-0.00315978484957391
F64.007812023221035
I00
tp2500
a(F-0.013565059372318
F24.186773244895647
I00
tp2501
a(F-2.3588826557602327
F65.253352404301808
I00
tp2502
a(F-1.5908727167671499
F64.007812023221035
I00
tp2503
a(F-0.56137243282832294
F30.016662039607269
I00
tp2504
a(F1.6041173226731438
F174
I00
tp2505
a(F0.70476913673530195
F142.55525244620065
I00
tp2506
a(F-0.00041220113081763543
F102.10778618695051
I00
tp2507
a(F0.14749989472086877
F82.565125809872058
I00
tp2508
a(F-0.010206620326094651
F42.720018726587654
I00
tp2509
a(F0.67250974276026776
F86.838931361457924
I00
tp2510
a(F-0.0041995800543159767
F46.61544808322666
I00
tp2511
a(F-0.7866543006835558
F132.83448347473634
I00
tp2512
a(F0.007658939297630063
F92.395887354362259
I00
tp2513
a(F-0.0026661134532313113
F52.773099207835045
I00
tp2514
a(F-0.0062304489748807867
F12.165525060596439
I00
tp2515
a(F1.4056476493802696
F126
I00
tp2516
a(F0.39214520552968857
F89.050547443572739
I00
tp2517
a(F-0.013289776659478392
F49.010203019371382
I00
tp2518
a(F0.59081034962826262
F167.28717822953436
I00
tp2519
a(F0.00079977401088582312
F127.06297651164952
I00
tp2520
a(F0.0015406911862303474
F86.838931361457924
I00
tp2521
a(F0.0041995800543155326
F46.61544808322666
I00
tp2522
a(F0.36782350579710466
F99.569071503153026
I00
tp2523
a(F0.0018440884377035616
F59.908263203000637
I00
tp2524
a(F-0.018914339141108183
F19.416487838947599
I00
tp2525
a(F-2.1436157154002462
F85.615419172015976
I00
tp2526
a(F-1.5827676434589761
F77.317527120310828
I00
tp2527
a(F-2.0573491109551187
F24.020824298928627
I00
tp2528
a(F2.7745383797901333
F61.854668376768458
I00
tp2529
a(F1.9257760241962112
F48.795491595023407
I00
tp2530
a(F1.1303387830850387
F40.311288741492746
I00
tp2531
a(F-2.3561944901923448
F22.627416997969522
I00
tp2532
a(F-2.3561944901923448
F22.627416997969522
I00
tp2533
a(F-2.3561944901923448
F22.627416997969522
I00
tp2534
a(F-2.3561944901923448
F22.627416997969522
I00
tp2535
a(F-2.3561944901923448
F22.627416997969522
I00
tp2536
a(F-2.3561944901923448
F22.627416997969522
I00
tp2537
a(F-2.3561944901923448
F22.627416997969522
I00
tp2538
a(F-2.3561944901923448
F22.627416997969522
I00
tp2539
a(F-2.3561944901923448
F22.627416997969522
I00
tp2540
a(F-2.3561944901923448
F22.627416997969522
I00
tp2541
a(F-2.3561944901923448
F22.627416997969522
I00
tp2542
a(F-2.2011307750423312
F28.160255680657446
I00
tp2543
a(F-2.1396414466128375
F30.413812651491099
I00
tp2544
a(F-1.6447353644528377
F27.073972741361768
I00
tp2545
a(F-1.7623356348503112
F30.675723300355934
I00
tp2546
a(F-1.7981266135945395
F20.518284528683193
I00
tp2547
a(F1.1513188650395341
F81.024687595818591
I00
tp2548
a(F0.20184822120165524
F41.109609582188931
I00
tp2549
a(F1.1071487177940904
F31.11269837220809
I00
tp2550
a(F2.1806006760689742
F25.709920264364882
I00
tp2551
a(F2.3730152148646306
F52.153619241621193
I00
tp2552
a(F2.0662180795331135
F57.870545184921149
I00
tp2553
a(F1.7726445479965545
F50
I00
tp2554
a(F1.4624248867518306
F32.140317359976393
I00
tp2555
a(F0.40489178628508515
F12.041594578792296
I00
tp2556
a(F-1.3903736751003002
F65.253352404301808
I00
tp2557
a(F-0.77188868490136642
F30.413812651491099
I00
tp2558
a(F0.19739555984988044
F31.016124838541646
I00
tp2559
a(F-3.0445645319769046
F100.84145972763385
I00
tp2560
a(F-2.1349062594881012
F121.00413216084813
I00
tp2561
a(F-1.094597075724522
F106.89246933250256
I00
tp2562
a(F-1.094597075724522
F106.89246933250256
I00
tp2563
a(F-1.094597075724522
F106.89246933250256
I00
tp2564
a(F-2.0344439357957027
F35.777087639996637
I00
tp2565
a(F-2.0344439357957027
F35.777087639996637
I00
tp2566
a(F-2.0344439357957027
F35.777087639996637
I00
tp2567
a(F-2.0344439357957027
F35.777087639996637
I00
tp2568
a(F-2.3561944901923448
F22.627416997969522
I00
tp2569
a(F-2.3561944901923448
F22.627416997969522
I00
tp2570
a(F1.5707963267948966
F80
I00
tp2571
a(F1.5707963267948966
F80
I00
tp2572
a(F0.96139007923984554
F51.894122981316485
I00
tp2573
a(F-0.37122313986572264
F75.166481891864535
I00
tp2574
a(F-0.009487381369559067
F35.057096285916209
I00
tp2575
a(F2.6338505451028951
F34.438350715445125
I00
tp2576
a(F2.0373143199869306
F38
I00
tp2577
a(F0.99011676879033317
F18
I00
tp2578
a(F0.3513118329619207
F235.37629447333902
I00
tp2579
a(F-0.00034881184545643151
F194.87944991712183
I00
tp2580
a(F-0.0027420724825830689
F155.32224567009067
I00
tp2581
a(F-0.0016820841999392044
F114.82595525402782
I00
tp2582
a(F0.0090970198668181013
F74.672618810377884
I00
tp2583
a(F-0.0068648807168529835
F35.114099732158877
I00
tp2584
a(F0.61724577039780826
F82.661962231730257
I00
tp2585
a(F0.0037057983154316076
F42.43819034784589
I00
tp2586
a(F3.0492069035723155
F100.12492197250393
I00
tp2587
a(F2.2526515679263559
F107.35455276791944
I00
tp2588
a(F1.5871231430450461
F98.183501669068619
I00
tp2589
a(F0.61645715627834452
F65.007691852580024
I00
tp2590
a(F0.02459528534269495
F25.019992006393608
I00
tp2591
a(F-1.6107750139181864
F174
I00
tp2592
a(F-0.71246741033108574
F141.56623891309678
I00
tp2593
a(F0.0014527834815591945
F102.10778618695051
I00
tp2594
a(F0.00095298573437663237
F61.660360037871982
I00
tp2595
a(F-0.033369321398916796
F22.360679774997898
I00
tp2596
a(F1.3701434494750098
F16.15549442140351
I00
tp2597
a(F-0.081945888006671019
F38.183766184073569
I01
tp2598
a(F0.44237422297674467
F29.732137494637012
I01
tp2599
a(F-2.9646231874374394
F181.49655644116226
I00
tp2600
a(F-2.0185683904260747
F185.58555978308226
I00
tp2601
a(F-1.021891928961443
F156.85024705112835
I00
tp2602
a(F-0.0040322362110938315
F117.00427342623003
I00
tp2603
a(F0.0041152031071116646
F76.843997813752509
I00
tp2604
a(F-0.012662003539723354
F37
I00
tp2605
a(F0.32855822614784458
F575.00086956455982
I00
tp2606
a(F-0.00013002802030559479
F535.00093457862295
I00
tp2607
a(F-0.00015104257020004397
F495.00101009997951
I00
tp2608
a(F-0.0001775993871913073
F455.00109889977188
I00
tp2609
a(F-1.1128247721590854
F56.797887284651708
I00
tp2610
a(F-0.21851610856422177
F16.763054614240211
I00
tp2611
a(F0.72749195814934087
F17.4928556845359
I00
tp2612
a(F-2.0344439357957027
F35.777087639996637
I00
tp2613
a(F-2.0344439357957027
F35.777087639996637
I00
tp2614
a(F-2.3561944901923448
F22.627416997969522
I00
tp2615
a(F-2.3561944901923448
F22.627416997969522
I00
tp2616
a(F1.5707963267948966
F80
I00
tp2617
a(F1.5707963267948966
F80
I00
tp2618
a(F1.5707963267948966
F80
I00
tp2619
a(F1.5707963267948966
F80
I00
tp2620
a(F1.5707963267948966
F80
I00
tp2621
a(F1.5707963267948966
F80
I00
tp2622
a(F1.5707963267948966
F80
I00
tp2623
a(F0.67831564067536387
F110.3177229641729
I00
tp2624
a(F0.0011513363212576344
F70.859014952227497
I00
tp2625
a(F0.0092804760163041067
F30.413812651491099
I00
tp2626
a(F-2.9904552030922655
F57.870545184921149
I00
tp2627
a(F3.1027156499888155
F31.400636936215164
I00
tp2628
a(F1.4722158131560938
F30.066592756745816
I00
tp2629
a(F0.44159133007211393
F12.041594578792296
I01
tp2630
a(F2.748227734279391
F219.47665023869851
I00
tp2631
a(F1.8749364232184789
F228.11619846034608
I00
tp2632
a(F0.97385992678745303
F204.00980368599937
I00
tp2633
a(F-0.0037061220716139154
F164.00304875214974
I00
tp2634
a(F-0.0060974854076825125
F124
I00
tp2635
a(F0
F84
I00
tp2636
a(F0
F44
I00
tp2637
a(F-0.45545107125089324
F218.24756585125985
I00
tp2638
a(F0.0018533751431215606
F178
I00
tp2639
a(F0.0029363700271383131
F137.7534028617805
I00
tp2640
a(F-0.0038541167007624111
F97.943861471763512
I00
tp2641
aa(lp2642
(F1.3734007669450161
F81.584312217484552
I00
tp2643
a(F0.081686873439285712
F102.88342918079665
I00
tp2644
a(F-0.014693569733480683
F63.505905237229712
I00
tp2645
a(F1.1588624034015016
F51.088159097779204
I00
tp2646
a(F-2.5253673626086446
F112.36102527122117
I00
tp2647
a(F-1.5348542040354376
F124.88794977899188
I00
tp2648
a(F-0.58254231116478472
F103.4456378974
I00
tp2649
a(F0.11263741660546378
F66.309878600401618
I00
tp2650
a(F0.0081204711537536944
F26
I00
tp2651
a(F-2.4832376503069944
F65.253352404301808
I00
tp2652
a(F-1.7143088050712862
F68.007352543677214
I00
tp2653
a(F-0.68097008933559744
F35.014282800023196
I00
tp2654
a(F1.5993599846336561
F174
I00
tp2655
a(F0.70105238104655587
F141.56623891309678
I00
tp2656
a(F0.0082203177374635672
F102.25947388873072
I00
tp2657
a(F0.12619769902849365
F82.28000972289685
I00
tp2658
a(F0.0014224741472572688
F42.720018726587654
I00
tp2659
a(F0.67250974276026776
F86.838931361457924
I00
tp2660
a(F-0.0041995800543159767
F46.61544808322666
I00
tp2661
a(F-0.78539816339744917
F131.84839779079607
I00
tp2662
a(F0.0064028020115234341
F92.395887354362259
I00
tp2663
a(F-0.0026661134532313113
F52.773099207835045
I00
tp2664
a(F-0.0062304489748807867
F12.165525060596439
I00
tp2665
a(F1.4056476493802696
F126
I00
tp2666
a(F0.39214520552968857
F89.050547443572739
I00
tp2667
a(F-0.013289776659478392
F49.010203019371382
I00
tp2668
a(F0.59081034962826262
F167.28717822953436
I00
tp2669
a(F0.00079977401088582312
F127.06297651164952
I00
tp2670
a(F0.0015406911862303474
F86.838931361457924
I00
tp2671
a(F0.0041995800543155326
F46.61544808322666
I00
tp2672
a(F0.36782350579710466
F99.569071503153026
I00
tp2673
a(F0.010912265256857623
F20.248456731316587
I01
tp2674
a(F-1.656398732600886
F231.63117234085743
I00
tp2675
a(F-1.1915371016670426
F46.486557196677836
I00
tp2676
a(F0.40163041136497668
F166.83225107874077
I00
tp2677
a(F0.026380699041079314
F128.84486796143648
I00
tp2678
a(F-0.0048484468566076799
F89.643739324059879
I00
tp2679
a(F0.0031347859698120928
F49.819674828324601
I00
tp2680
a(F-0.014123354652545661
F14.212670403551895
I00
tp2681
a(F0.69372934024617283
F125.00399993600205
I00
tp2682
a(F-0.0079998293398872988
F85
I00
tp2683
a(F8.8817841970012523e-16
F45
I00
tp2684
a(F1.3779120145369221
F130.41855696180662
I00
tp2685
a(F0.48195619649971055
F96.083297195714508
I00
tp2686
a(F-0.028418003539866898
F57.140178508646613
I00
tp2687
a(F-0.13743564379674744
F19.416487838947599
I00
tp2688
a(F-0.67481956475660843
F102.30347012687302
I00
tp2689
a(F0.0062577405936177222
F62.481997407253232
I00
tp2690
a(F-0.041891645095928798
F21.400934559032695
I00
tp2691
a(F0.93569931075061952
F169.0266251216062
I00
tp2692
a(F-0.0022469811314804744
F129.01550294441361
I00
tp2693
a(F-1.4211502833052863
F54.74486277268398
I00
tp2694
a(F-1.1058306270468208
F26.076809620810597
I00
tp2695
a(F-0.16664480055027031
F12.806248474865697
I01
tp2696
a(F0.85473129708565665
F102.06860437960343
I00
tp2697
a(F1.3411538845097617
F79.075912893876861
I00
tp2698
a(F1.3411538845097617
F79.075912893876861
I00
tp2699
a(F1.3411538845097617
F79.075912893876861
I00
tp2700
a(F1.3411538845097617
F79.075912893876861
I00
tp2701
a(F1.3411538845097617
F79.075912893876861
I00
tp2702
a(F1.3411538845097617
F79.075912893876861
I00
tp2703
a(F1.3411538845097617
F79.075912893876861
I00
tp2704
a(F1.3411538845097617
F79.075912893876861
I00
tp2705
a(F1.3411538845097617
F79.075912893876861
I00
tp2706
a(F1.3411538845097617
F79.075912893876861
I00
tp2707
a(F0.4404575437098579
F48.166378315169183
I00
tp2708
a(F-1.2753845991903643
F118.66338946785567
I00
tp2709
a(F-0.35317983076039638
F80.305666051655408
I00
tp2710
a(F-0.012417865238694592
F40.11234224026316
I00
tp2711
a(F3.0667328058790257
F0
I00
tp2712
a(F-0.98016034430320076
F28.284271247461902
I00
tp2713
a(F3.1289706030337721
F100.84145972763385
I00
tp2714
a(F-2.8186467553113808
F17.029386365926403
I00
tp2715
a(F-1.7714492041147833
F17.029386365926403
I00
tp2716
a(F0.58354994219579126
F113.84199576606166
I00
tp2717
a(F-0.0085468004326112457
F74
I00
tp2718
a(F-1.5707963267948966
F32
I00
tp2719
a(F-1.5707963267948966
F16
I00
tp2720
a(F-1.7429871413178351
F23.345235059857504
I00
tp2721
a(F1.1670022349097646
F119.6202324023825
I00
tp2722
a(F1.6030432092301501
F62.032249677083293
I00
tp2723
a(F1.5707963267948966
F60
I00
tp2724
a(F1.5707963267948966
F60
I00
tp2725
a(F1.5707963267948966
F60
I00
tp2726
a(F1.5707963267948966
F60
I00
tp2727
a(F1.5707963267948966
F60
I00
tp2728
a(F1.5707963267948966
F60
I00
tp2729
a(F1.2258557071073062
F34.058772731852805
I00
tp2730
a(F2.9057018615397734
F204.40156555173445
I00
tp2731
a(F1.962685749887088
F212.07781590727495
I00
tp2732
a(F0.95908481761121323
F158.8238017426859
I00
tp2733
a(F-0.0019045580611511959
F119.01260437449471
I00
tp2734
a(F0.0015024672102836867
F78.294316524253531
I00
tp2735
a(F-0.006305923716029227
F38.483762809787713
I00
tp2736
a(F0.45353776374579491
F102.30347012687302
I00
tp2737
a(F-0.0062577405936172781
F62.481997407253232
I00
tp2738
a(F0.0058138879818416811
F22.022715545545239
I00
tp2739
a(F-0.74880467657147864
F128.1327436684316
I00
tp2740
a(F0.0039989123016308525
F87.823687009826685
I00
tp2741
a(F0.0077463239287514085
F48.507731342539614
I00
tp2742
a(F-0.020457503692177248
F8.0622577482985491
I00
tp2743
a(F1.4464413322481349
F590
I00
tp2744
a(F0.40466868262547084
F553.00813737231749
I00
tp2745
a(F-0.0015262858484232922
F513.00389862066345
I00
tp2746
a(F0.00032968888536899499
F473.00422831091055
I00
tp2747
a(F0.00039060018617709247
F433.00461891300881
I00
tp2748
a(F0.00047010979477724035
F393.00508902557482
I00
tp2749
a(F0.00057664716493333046
F353.00566567691232
I00
tp2750
a(F-0.0024707844481919317
F313.00159744001309
I00
tp2751
a(F-0.0031948773085748172
F82
I00
tp2752
a(F0.1498124565728971
F107.20074626605917
I00
tp2753
a(F0.00055897143423733198
F66.753277073114546
I00
tp2754
a(F-0.0032930726187321291
F27.294688127912362
I00
tp2755
a(F2.4267667510909856
F150.63200191194434
I00
tp2756
a(F1.6186057481718246
F136.2974687952788
I00
tp2757
a(F0.61303682662105308
F109.48059188732951
I00
tp2758
a(F-0.061688634396764641
F70.228199464317754
I00
tp2759
a(F0.016711536041021713
F30.675723300355934
I00
tp2760
a(F-1.2387368592520112
F78
I00
tp2761
a(F-0.39386093643371733
F39.812058474788763
I00
tp2762
a(F-0.86687064422747273
F70.710678118654755
I00
tp2763
a(F0.0054944502032165943
F30.886890422961002
I00
tp2764
a(F0.78114286993297188
F64.560049566275893
I00
tp2765
a(F-0.43089554136447861
F157.38487856207789
I00
tp2766
a(F-0.042716232191161829
F120.96693763173474
I00
tp2767
a(F-0.0031503960814678322
F81.344944526380985
I00
tp2768
a(F-0.0091335114843471565
F41.725292090050132
I00
tp2769
a(F-0.581031250856062
F82
I00
tp2770
a(F-0.0052294700510051584
F41.976183723630712
I00
tp2771
a(F0.062214686708325306
F7.2801098892805181
I00
tp2772
a(F-0.080904099155231002
F40.792156108742276
I00
tp2773
a(F2.9441970937399127
F623
I00
tp2774
a(F2.4422266980805905
F71.344235926947874
I00
tp2775
a(F1.800348832158793
F60.21627686929839
I00
tp2776
a(F1.4118433569662043
F26.019223662515376
I00
tp2777
a(F-0.32664341535235542
F21.400934559032695
I00
tp2778
a(F0.88231579119181092
F102.30347012687302
I00
tp2779
a(F0.88231579119181092
F102.30347012687302
I00
tp2780
a(F0.88231579119181092
F102.30347012687302
I00
tp2781
a(F0.88231579119181092
F102.30347012687302
I00
tp2782
a(F0.88231579119181092
F102.30347012687302
I00
tp2783
a(F0.88231579119181092
F102.30347012687302
I00
tp2784
a(F0.88231579119181092
F102.30347012687302
I00
tp2785
a(F-1.5707963267948966
F32
I00
tp2786
a(F-1.5707963267948966
F32
I00
tp2787
a(F-1.5707963267948966
F32
I00
tp2788
a(F-2.0344439357957027
F20.124611797498108
I00
tp2789
a(F-2.0418120407822542
F19.026297590440446
I00
tp2790
a(F-3.105285728549767
F132.41223508422476
I00
tp2791
a(F-2.083584670211724
F136.56500283747664
I00
tp2792
aasb.