ccopy_reg
_reconstructor
p1
(cdomination.core
ReplayData
p2
c__builtin__
object
p3
NtRp4
(dp5
S'red_name'
p6
S'default_agent (default_agent.py)'
p7
sS'settings'
p8
g1
(cdomination.core
Settings
p9
g3
NtRp10
(dp11
S'max_turn'
p12
F1.0471975511965976
sS'max_range'
p13
I60
sS'end_condition'
p14
I1
sS'field_known'
p15
I01
sS'think_time'
p16
F0.050000000000000003
sS'tilesize'
p17
I16
sS'spawn_time'
p18
I10
sS'capture_mode'
p19
I2
sS'max_speed'
p20
I40
sS'agent_type'
p21
S'tank'
p22
sS'ammo_amount'
p23
I3
sS'ammo_rate'
p24
I20
sS'max_steps'
p25
I150
sS'max_score'
p26
I400
sS'max_see'
p27
I100
sbsS'blue_name'
p28
S'comparison_agent (comparison_agent.py)'
p29
sS'field'
p30
g1
(cdomination.core
Field
p31
g3
NtRp32
(dp33
S'width'
p34
I40
sS'tiles'
p35
(lp36
(lp37
S'W'
aS'W'
aS'W'
aS'W'
aS'W'
aS'W'
aS'W'
aS'W'
aS'W'
aS'W'
aS'W'
aS'W'
aS'W'
aS'W'
aS'W'
aS'W'
aS'W'
aS'W'
aS'W'
aS'W'
aS'W'
aS'W'
aS'W'
aS'W'
aS'W'
aS'W'
aS'W'
aS'W'
aS'W'
aS'W'
aS'W'
aS'W'
aS'W'
aS'W'
aS'W'
aS'W'
aS'W'
aS'W'
aS'W'
aS'W'
aa(lp38
S'W'
aS'R'
aS'R'
aS'_'
aS'_'
aS'_'
aS'W'
aS'W'
aS'W'
aS'W'
aS'_'
aS'_'
aS'_'
aS'_'
aS'_'
aS'_'
aS'_'
aS'_'
aS'_'
aS'_'
aS'_'
aS'_'
aS'_'
aS'_'
aS'_'
aS'_'
aS'_'
aS'_'
aS'_'
aS'_'
aS'W'
aS'W'
aS'W'
aS'W'
aS'_'
aS'_'
aS'_'
aS'B'
aS'B'
aS'W'
aa(lp39
S'W'
aS'R'
aS'_'
aS'_'
aS'_'
aS'_'
aS'W'
aS'W'
aS'W'
aS'W'
aS'_'
aS'_'
aS'_'
aS'_'
aS'_'
aS'_'
aS'_'
aS'_'
aS'_'
aS'_'
aS'_'
aS'_'
aS'_'
aS'_'
aS'_'
aS'_'
aS'_'
aS'_'
aS'_'
aS'_'
aS'W'
aS'W'
aS'W'
aS'W'
aS'_'
aS'_'
aS'_'
aS'_'
aS'B'
aS'W'
aa(lp40
S'W'
aS'_'
aS'_'
aS'_'
aS'_'
aS'_'
aS'W'
aS'W'
aS'W'
aS'W'
aS'_'
aS'_'
aS'_'
aS'_'
aS'_'
aS'_'
aS'_'
aS'_'
aS'_'
aS'_'
aS'_'
aS'_'
aS'_'
aS'_'
aS'_'
aS'_'
aS'_'
aS'_'
aS'_'
aS'_'
aS'W'
aS'W'
aS'W'
aS'W'
aS'_'
aS'_'
aS'_'
aS'_'
aS'_'
aS'W'
aa(lp41
S'W'
aS'_'
aS'_'
aS'_'
aS'_'
aS'_'
aS'_'
aS'_'
aS'_'
aS'_'
aS'_'
aS'_'
aS'_'
aS'_'
aS'_'
aS'_'
aS'_'
aS'_'
aS'_'
aS'_'
aS'_'
aS'_'
aS'_'
aS'_'
aS'_'
aS'_'
aS'_'
aS'_'
aS'_'
aS'_'
aS'_'
aS'_'
aS'_'
aS'_'
aS'_'
aS'_'
aS'_'
aS'_'
aS'_'
aS'W'
aa(lp42
S'W'
aS'_'
aS'_'
aS'_'
aS'_'
aS'_'
aS'_'
aS'_'
aS'_'
aS'C'
aS'_'
aS'_'
aS'_'
aS'_'
aS'_'
aS'_'
aS'_'
aS'_'
aS'_'
aS'A'
aS'_'
aS'_'
aS'_'
aS'_'
aS'_'
aS'_'
aS'_'
aS'_'
aS'_'
aS'_'
aS'C'
aS'_'
aS'_'
aS'_'
aS'_'
aS'_'
aS'_'
aS'_'
aS'_'
aS'W'
aa(lp43
S'W'
aS'W'
aS'W'
aS'W'
aS'W'
aS'W'
aS'W'
aS'W'
aS'_'
aS'_'
aS'A'
aS'W'
aS'W'
aS'W'
aS'W'
aS'W'
aS'W'
aS'W'
aS'_'
aS'_'
aS'_'
aS'_'
aS'W'
aS'W'
aS'W'
aS'W'
aS'W'
aS'W'
aS'W'
aS'A'
aS'_'
aS'_'
aS'W'
aS'W'
aS'W'
aS'W'
aS'W'
aS'W'
aS'W'
aS'W'
aa(lp44
S'W'
aS'W'
aS'W'
aS'W'
aS'W'
aS'W'
aS'W'
aS'W'
aS'W'
aS'W'
aS'W'
aS'W'
aS'W'
aS'W'
aS'W'
aS'W'
aS'W'
aS'W'
aS'_'
aS'_'
aS'_'
aS'_'
aS'W'
aS'W'
aS'W'
aS'W'
aS'W'
aS'W'
aS'W'
aS'W'
aS'W'
aS'W'
aS'W'
aS'W'
aS'W'
aS'W'
aS'W'
aS'W'
aS'W'
aS'W'
aa(lp45
S'W'
aS'W'
aS'W'
aS'W'
aS'W'
aS'W'
aS'W'
aS'W'
aS'W'
aS'W'
aS'W'
aS'W'
aS'W'
aS'W'
aS'W'
aS'W'
aS'W'
aS'W'
aS'_'
aS'_'
aS'_'
aS'_'
aS'W'
aS'W'
aS'W'
aS'W'
aS'W'
aS'W'
aS'W'
aS'W'
aS'W'
aS'W'
aS'W'
aS'W'
aS'W'
aS'W'
aS'W'
aS'W'
aS'W'
aS'W'
aa(lp46
S'W'
aS'W'
aS'W'
aS'W'
aS'W'
aS'W'
aS'W'
aS'W'
aS'W'
aS'W'
aS'W'
aS'W'
aS'W'
aS'W'
aS'W'
aS'W'
aS'W'
aS'W'
aS'_'
aS'_'
aS'_'
aS'_'
aS'W'
aS'W'
aS'W'
aS'W'
aS'W'
aS'W'
aS'W'
aS'W'
aS'W'
aS'W'
aS'W'
aS'W'
aS'W'
aS'W'
aS'W'
aS'W'
aS'W'
aS'W'
aa(lp47
S'W'
aS'_'
aS'_'
aS'A'
aS'_'
aS'_'
aS'_'
aS'_'
aS'_'
aS'_'
aS'_'
aS'_'
aS'_'
aS'_'
aS'_'
aS'_'
aS'_'
aS'_'
aS'_'
aS'_'
aS'_'
aS'_'
aS'_'
aS'_'
aS'_'
aS'_'
aS'_'
aS'_'
aS'_'
aS'_'
aS'_'
aS'_'
aS'_'
aS'_'
aS'_'
aS'_'
aS'A'
aS'_'
aS'_'
aS'W'
aa(lp48
S'W'
aS'_'
aS'_'
aS'_'
aS'_'
aS'_'
aS'_'
aS'_'
aS'_'
aS'_'
aS'_'
aS'_'
aS'_'
aS'_'
aS'_'
aS'_'
aS'_'
aS'_'
aS'_'
aS'_'
aS'_'
aS'_'
aS'_'
aS'_'
aS'_'
aS'_'
aS'_'
aS'_'
aS'_'
aS'_'
aS'_'
aS'_'
aS'_'
aS'_'
aS'_'
aS'_'
aS'_'
aS'_'
aS'_'
aS'W'
aa(lp49
S'W'
aS'W'
aS'W'
aS'W'
aS'W'
aS'W'
aS'_'
aS'_'
aS'_'
aS'_'
aS'_'
aS'_'
aS'W'
aS'W'
aS'W'
aS'W'
aS'_'
aS'_'
aS'_'
aS'_'
aS'_'
aS'_'
aS'_'
aS'_'
aS'W'
aS'W'
aS'W'
aS'W'
aS'_'
aS'_'
aS'_'
aS'_'
aS'_'
aS'_'
aS'W'
aS'W'
aS'W'
aS'W'
aS'W'
aS'W'
aa(lp50
S'W'
aS'W'
aS'W'
aS'W'
aS'W'
aS'W'
aS'_'
aS'_'
aS'_'
aS'_'
aS'_'
aS'_'
aS'W'
aS'W'
aS'W'
aS'W'
aS'_'
aS'_'
aS'_'
aS'_'
aS'_'
aS'_'
aS'_'
aS'_'
aS'W'
aS'W'
aS'W'
aS'W'
aS'_'
aS'_'
aS'_'
aS'_'
aS'_'
aS'_'
aS'W'
aS'W'
aS'W'
aS'W'
aS'W'
aS'W'
aa(lp51
S'W'
aS'W'
aS'W'
aS'W'
aS'W'
aS'W'
aS'_'
aS'_'
aS'_'
aS'_'
aS'_'
aS'_'
aS'W'
aS'W'
aS'W'
aS'W'
aS'_'
aS'_'
aS'_'
aS'C'
aS'_'
aS'_'
aS'_'
aS'_'
aS'W'
aS'W'
aS'W'
aS'W'
aS'_'
aS'_'
aS'_'
aS'_'
aS'_'
aS'_'
aS'W'
aS'W'
aS'W'
aS'W'
aS'W'
aS'W'
aa(lp52
S'W'
aS'W'
aS'W'
aS'W'
aS'W'
aS'W'
aS'_'
aS'_'
aS'_'
aS'_'
aS'_'
aS'_'
aS'W'
aS'W'
aS'W'
aS'W'
aS'_'
aS'_'
aS'_'
aS'_'
aS'_'
aS'_'
aS'_'
aS'_'
aS'W'
aS'W'
aS'W'
aS'W'
aS'_'
aS'_'
aS'_'
aS'_'
aS'_'
aS'_'
aS'W'
aS'W'
aS'W'
aS'W'
aS'W'
aS'W'
aa(lp53
S'W'
aS'_'
aS'_'
aS'_'
aS'_'
aS'_'
aS'_'
aS'_'
aS'_'
aS'_'
aS'_'
aS'_'
aS'W'
aS'W'
aS'W'
aS'W'
aS'_'
aS'_'
aS'_'
aS'_'
aS'_'
aS'_'
aS'_'
aS'_'
aS'W'
aS'W'
aS'W'
aS'W'
aS'_'
aS'_'
aS'_'
aS'_'
aS'_'
aS'_'
aS'_'
aS'_'
aS'_'
aS'_'
aS'_'
aS'W'
aa(lp54
S'W'
aS'_'
aS'_'
aS'_'
aS'_'
aS'_'
aS'_'
aS'_'
aS'_'
aS'_'
aS'_'
aS'_'
aS'_'
aS'_'
aS'_'
aS'_'
aS'_'
aS'_'
aS'_'
aS'_'
aS'_'
aS'_'
aS'_'
aS'_'
aS'_'
aS'_'
aS'_'
aS'_'
aS'_'
aS'_'
aS'_'
aS'_'
aS'_'
aS'_'
aS'_'
aS'_'
aS'_'
aS'_'
aS'_'
aS'W'
aa(lp55
S'W'
aS'_'
aS'_'
aS'_'
aS'_'
aS'_'
aS'_'
aS'_'
aS'_'
aS'_'
aS'_'
aS'_'
aS'_'
aS'_'
aS'_'
aS'A'
aS'_'
aS'_'
aS'_'
aS'_'
aS'_'
aS'_'
aS'_'
aS'_'
aS'A'
aS'_'
aS'_'
aS'_'
aS'_'
aS'_'
aS'_'
aS'_'
aS'_'
aS'_'
aS'_'
aS'_'
aS'_'
aS'_'
aS'_'
aS'W'
aa(lp56
S'W'
aS'W'
aS'W'
aS'W'
aS'W'
aS'W'
aS'W'
aS'W'
aS'W'
aS'W'
aS'W'
aS'W'
aS'W'
aS'W'
aS'W'
aS'W'
aS'W'
aS'W'
aS'W'
aS'W'
aS'W'
aS'W'
aS'W'
aS'W'
aS'W'
aS'W'
aS'W'
aS'W'
aS'W'
aS'W'
aS'W'
aS'W'
aS'W'
aS'W'
aS'W'
aS'W'
aS'W'
aS'W'
aS'W'
aS'W'
aasg17
I16
sS'_unpacked'
p57
NsS'height'
p58
I20
sbsS'actions_red'
p59
(lp60
(lp61
(F0.62604652249353165
F80.212218520621903
I00
tp62
a(F-0.15183592608967222
F127.01574705523721
I00
tp63
a(F0.066208903866724622
F58.309518948453004
I00
tp64
a(F-0.496491733193694
F182.17573932881405
I00
tp65
a(F-0.001699364963888339
F142.12670403551894
I00
tp66
a(F0.049258614758506347
F109.45775440780794
I00
tp67
a(F-0.021832443142939972
F86.209048249009228
I00
tp68
a(F-0.0045294103941824204
F46.097722286464439
I00
tp69
a(F-0.025146476211095781
F25.019992006393608
I01
tp70
a(F-0.039978687123289891
F12
I01
tp71
a(F0.62604652249353165
F80.212218520621903
I00
tp72
a(F0.62604652249353165
F80.212218520621903
I00
tp73
a(F0.62604652249353165
F80.212218520621903
I00
tp74
a(F0.62604652249353165
F80.212218520621903
I00
tp75
a(F0.62604652249353165
F80.212218520621903
I00
tp76
a(F0.62604652249353165
F80.212218520621903
I00
tp77
a(F0.62604652249353165
F80.212218520621903
I00
tp78
a(F0.62604652249353165
F80.212218520621903
I00
tp79
a(F0.62604652249353165
F80.212218520621903
I00
tp80
a(F0.62604652249353165
F80.212218520621903
I00
tp81
a(F0.62604652249353165
F80.212218520621903
I00
tp82
a(F0.0027497639219014047
F40.80441152620633
I00
tp83
a(F-0.55362439378032402
F239.67686580060246
I00
tp84
a(F6.2720829505646947e-05
F199.56452590578317
I00
tp85
a(F9.4277363725581154e-05
F159.45218719101973
I00
tp86
a(F2.8152610761184178
F40.26164427839479
I00
tp87
a(F2.0369214567044072
F56.008927859761783
I00
tp88
a(F1.0012719485722625
F34.014702703389901
I00
tp89
a(F-1.5336314512230773
F15.033296378372908
I00
tp90
a(F-3.1065921138445298
F14.422205101855956
I00
tp91
a(F-2.588641343479777
F17.029386365926403
I00
tp92
a(F-1.6589554377146252
F17.029386365926403
I00
tp93
a(F1.0083308231100334
F317.0141952657641
I00
tp94
a(F0.0058533472625583727
F277.0018050482704
I00
tp95
a(F0.0036100926199997829
F28
I01
tp96
a(F0
F16
I00
tp97
a(F1.4524705442893637
F144.00694427700353
I00
tp98
a(F0.55136941219172009
F108.04165863221463
I00
tp99
a(F0.0016326516105840128
F68.029405406779802
I00
tp100
a(F0.0062958244753188453
F28.0178514522438
I00
tp101
a(F0.74969905071812448
F90.509667991878089
I00
tp102
a(F0
F50.911688245431421
I00
tp103
a(F2.6679951241961817
F127.12985487288185
I00
tp104
a(F2.9015289726324367
F46.010868281309364
I00
tp105
a(F1.8504509597335987
F56.008927859761783
I00
tp106
a(F0.82109727607677296
F28.0178514522438
I00
tp107
a(F-1.3281957804691096
F116.48175822848829
I00
tp108
a(F1.4526779189322543
F119.4361754243663
I00
tp109
a(F0.59832360698409826
F84.403791384036765
I00
tp110
a(F-0.0085376794241929232
F44.407206622349037
I00
tp111
a(F-2.6280672521375714
F224.61522655421203
I00
tp112
a(F-2.761522721731013
F48.041648597857254
I00
tp113
a(F-1.6919109905355345
F52.009614495783374
I00
tp114
a(F-0.67544343596117251
F20.024984394500787
I00
tp115
a(F1.2133248706156641
F206.93960471596537
I00
tp116
a(F0.20638333750202253
F167.14065932620943
I00
tp117
a(F-1.0237689931841993
F33.541019662496844
I01
tp118
a(F-1.8832013588840484
F30.265491900843113
I00
tp119
a(F-1.990454492977346
F25
I00
tp120
a(F-2.0446960968217787
F21.931712199461309
I00
tp121
a(F-2.0421066210652428
F20.880613017821101
I00
tp122
a(F-2.0768530423357943
F20.396078054371138
I00
tp123
a(F-2.0252690248594263
F110.3177229641729
I00
tp124
a(F-1.3057793531790018
F95.273291115611201
I00
tp125
a(F-0.70345227539077815
F38
I00
tp126
a(F0.72297935340149122
F22.671568097509269
I00
tp127
a(F2.8645462270032622
F227.22015755649849
I00
tp128
a(F2.8156199485066287
F55.443665102516448
I00
tp129
a(F1.9097193469678544
F68.007352543677214
I00
tp130
a(F0.87220238256612426
F41.012193308819754
I00
tp131
a(F-1.1813843327075666
F206.42189806316577
I00
tp132
a(F1.467943348956676
F120.76837334335509
I00
tp133
a(F0.61212280661523266
F85.802097876450546
I00
tp134
a(F-0.0061067943144439418
F45.803929962395145
I00
tp135
a(F-3.0891757640841466
F96.674712308855618
I00
tp136
a(F-2.7460699098907639
F47.010637094172637
I00
tp137
a(F-1.6972043035273092
F51.009802979427398
I00
tp138
a(F-0.68298448308444826
F19.026297590440446
I00
tp139
a(F0.67862958410447227
F80.212218520621903
I00
tp140
a(F0.11021090648789622
F43.185645763378368
I01
tp141
a(F1.0471057073765238
F142.20056258679148
I00
tp142
a(F0.46684699584479317
F33.421549934136806
I01
tp143
a(F-0.66590111439452038
F74.006756448313553
I00
tp144
a(F-0.01351269101332786
F34
I00
tp145
a(F1.5638034337895634
F143.00349646075091
I00
tp146
a(F0.69617673683050629
F110.64357188738983
I00
tp147
a(F-0.0003871467092682046
F70.035705179572517
I00
tp148
a(F-0.32200327109583604
F53.600373133029585
I01
tp149
a(F-3.0700513375381737
F153.46986674914396
I00
tp150
a(F-2.6490767100625163
F52.497618993626752
I00
tp151
a(F-2.0526893254777061
F37.161808352124091
I00
tp152
a(F-2.0477267714330467
F35.805027579936315
I00
tp153
a(F-1.9739859340243042
F34.014702703389901
I00
tp154
a(F-1.0022620333539356
F57.314919523628397
I01
tp155
a(F-0.20317584229354235
F46.173585522460783
I01
tp156
a(F3.0046292098580283
F72.013887549555335
I00
tp157
a(F2.4188398577249774
F61.008196170678573
I00
tp158
a(F1.3741160182420451
F53.009433122794285
I00
tp159
a(F0.018549109062389046
F49.040799340956916
I00
tp160
a(F1.074901835358836
F14.142135623730951
I00
tp161
a(F-0.75769387923520881
F126
I00
tp162
a(F0
F86
I00
tp163
a(F0.021273386024060148
F47.010637094172637
I00
tp164
a(F-1.502565894467347
F78.313472659562223
I00
tp165
a(F-0.86008686137307055
F48.383881613611777
I00
tp166
a(F-1.029429191311384
F115.95257651298655
I00
tp167
a(F-0.24071451312554037
F206.0218435020908
I00
tp168
a(F0.0025144675385524451
F166.01204775557707
I00
tp169
a(F-0.0038240731376038006
F126.01587201618692
I00
tp170
a(F0.0042443000354062121
F86.005813756978085
I00
tp171
a(F-0.010108323885408943
F46.010868281309364
I00
tp172
a(F3.0789520530081145
F201.71762441591463
I00
tp173
a(F2.1206352832735558
F222.00225224082752
I00
tp174
a(F1.0738593265668133
F203.00246303924493
I00
tp175
a(F0.027870599199669499
F163.00306745579974
I00
tp176
a(F-1.1262698930721378
F103.31505214633539
I00
tp177
a(F-0.12276288258740387
F63.158530698552511
I00
tp178
a(F-0.018652067196304856
F23.769728648009426
I00
tp179
a(F0.91891372503939195
F65.253352404301808
I00
tp180
a(F0.018585220456174056
F24.738633753705962
I00
tp181
a(F0.91971960535041664
F102.44998779892558
I00
tp182
a(F-0.002493760416588664
F62.625873247404705
I00
tp183
a(F-0.011204012956277154
F22.803508501982758
I00
tp184
a(F2.4805494847391065
F0
I00
tp185
a(F1.4333519335425091
F0
I00
tp186
a(F0.38615438234591126
F0
I00
tp187
a(F-1.6891221093004296
F144.00694427700353
I00
tp188
a(F-0.85365938800773344
F114.16216536138407
I00
tp189
a(F-0.00023674241981952449
F74
I00
tp190
a(F1.1988367501151433
F51.088159097779204
I00
tp191
a(F0.53214557603091084
F41.109609582188931
I01
tp192
a(F0.44851808949800409
F102.82509421342633
I00
tp193
a(F-0.00045941803812166171
F63.505905237229712
I00
tp194
a(F0.11867054606362393
F45.354161881794269
I01
tp195
a(F2.9458698924472522
F142.1724305201258
I00
tp196
a(F2.6348146026637798
F24.041630560342615
I00
tp197
a(F2.4973702094113923
F16.124515496597098
I00
tp198
a(F1.4025895549378111
F13.038404810405298
I00
tp199
a(F1.4252220313625656
F34.014702703389901
I00
tp200
a(F2.4497871061344094
F13.038404810405298
I00
tp201
a(F2.6800636854868412
F51.195702944680818
I00
tp202
a(F2.4465930973590098
F30.232432915661949
I00
tp203
a(F2.1419245476687347
F17.464249196572979
I00
tp204
a(F1.4089588955564754
F12.041594578792296
I00
tp205
a(F1.5023548357268428
F49.979995998399197
I00
tp206
a(F-3.0813210335259749
F16.278820596099706
I00
tp207
a(F-1.5759703235317879
F50
I00
tp208
a(F-0.70042973437775657
F54.561891462814962
I01
tp209
a(F-2.7231616982128291
F54.037024344425184
I00
tp210
a(F-2.1258432629535706
F19.235384061671343
I00
tp211
aa(lp212
(F0.76456784336123107
F67.896980787071826
I00
tp213
a(F-0.26094154723713503
F111.89280584559492
I00
tp214
a(F-0.39619834251943997
F205.18284528683191
I00
tp215
a(F-0.0035091749133648875
F163.88410539158457
I00
tp216
a(F1.5665462005947672
F30.14962686336267
I00
tp217
a(F2.0358996031234815
F22.022715545545239
I00
tp218
a(F0.038451683089520294
F17.804493814764857
I00
tp219
a(F-2.2922640694197232
F126.19429464123962
I00
tp220
a(F-2.8191201624880282
F17.029386365926403
I00
tp221
a(F-1.7719226112914308
F17.029386365926403
I00
tp222
a(F0.88044168024306746
F123.03657992645927
I00
tp223
a(F0.024385409172718475
F83
I00
tp224
a(F0
F43
I00
tp225
a(F1.4812925084432864
F78.313472659562223
I00
tp226
a(F0.77357739705912199
F48.507731342539614
I00
tp227
a(F-0.24997862146082284
F11
I00
tp228
a(F1.5582446847253291
F239.0188277102873
I00
tp229
a(F-1.0684709372206584
F94.021274188345274
I00
tp230
a(F-0.03702011587393006
F54.037024344425184
I00
tp231
a(F0.46121452377769678
F34.014702703389901
I00
tp232
a(F-3.1355258634294541
F227.75864418282788
I00
tp233
a(F-2.1911083596057752
F220.7306050369998
I00
tp234
a(F0.12471541683737986
F79.025312400521386
I00
tp235
a(F0.00032435937882935306
F39.012818406262319
I00
tp236
a(F-1.945825016355941
F137.2953021774598
I00
tp237
a(F-2.1478011475082939
F36.013886210738214
I00
tp238
a(F-1.125416021329217
F19.026297590440446
I00
tp239
a(F1.2620651329737225
F114.56002793295748
I00
tp240
a(F0.41319963796400305
F153.55129436120035
I00
tp241
a(F-0.0035019088721908176
F113.44161493913951
I00
tp242
a(F-0.38056327180023608
F86.313382508160345
I00
tp243
a(F0.05276440406122207
F47.010637094172637
I00
tp244
a(F1.0865860637043721
F37.013511046643494
I00
tp245
a(F3.069058923460581
F28.301943396169811
I00
tp246
a(F2.5797562970220014
F47.853944456021594
I00
tp247
a(F2.0038083623251239
F59.008473967727717
I00
tp248
a(F0.96743391791554334
F36.013886210738214
I00
tp249
a(F3.1079049262903453
F169.00295855398508
I00
tp250
a(F2.2506874823555094
F191.23022773609824
I00
tp251
a(F1.395796810654522
F179.56892826989863
I00
tp252
a(F0.44528108388752985
F142.66744548074027
I00
tp253
a(F-0.00074631915039669039
F103.31021246711285
I00
tp254
a(F0.0055256536615617691
F63.063460101710248
I00
tp255
a(F0.59361855012265163
F12.529964086141668
I01
tp256
a(F2.0214011971650949
F123.14625451064275
I00
tp257
a(F-2.1602897354099526
F24.020824298928627
I00
tp258
a(F-1.1259410613554977
F55.081757415681643
I00
tp259
a(F2.4174477299523804
F24.839484696748443
I00
tp260
a(F2.3997674558957689
F40.162171256046406
I00
tp261
a(F1.9048174358584635
F22.022715545545239
I00
tp262
a(F1.6089630828726857
F16.031219541881399
I00
tp263
a(F-1.0633197029348218
F123.00406497347964
I00
tp264
a(F-0.024252053918168315
F83
I00
tp265
a(F0
F43
I00
tp266
a(F0
F58
I01
tp267
a(F0
F18
I00
tp268
a(F-1.7234456551901616
F144.68241081762497
I00
tp269
a(F-2.1343737895164856
F25.019992006393608
I00
tp270
a(F-1.1239694424663762
F13.038404810405298
I00
tp271
a(F1.45164510140813
F143.01398533010678
I00
tp272
a(F0.5513694121917192
F108.04165863221463
I00
tp273
a(F0.0016326516105840128
F68.029405406779802
I00
tp274
a(F0.58568628485268759
F112.64546151532249
I00
tp275
a(F-0.038714352465509361
F71.56116265125938
I00
tp276
a(F0.0026990487765479187
F31.064449134018133
I00
tp277
a(F-2.9352687595600759
F90.509667991878089
I00
tp278
a(F-2.0647800644335152
F80.448741444475061
I00
tp279
a(F-1.5356119333635843
F66.272166103123567
I00
tp280
a(F-1.0427218783685381
F35.777087639996637
I00
tp281
a(F0.69044645705469199
F146.75830470538966
I00
tp282
a(F2.3112713838659129
F125.09996003196804
I00
tp283
a(F1.6859474243392976
F99.639349656649202
I00
tp284
a(F0.83468344573010889
F70.007142492748557
I00
tp285
a(F-0.01428474258739687
F30
I00
tp286
a(F-0.72297935340149078
F22.671568097509269
I00
tp287
a(F2.9685166224199397
F102.44998779892558
I00
tp288
a(F2.0244576370849341
F94.047860156411858
I00
tp289
a(F1.3689481055932404
F71.693793315739683
I00
tp290
a(F0.6674808481557748
F36.055512754639892
I00
tp291
a(F0.055498505245716867
F12
I01
tp292
a(F0.76456784336123107
F67.896980787071826
I00
tp293
a(F0.76456784336123107
F67.896980787071826
I00
tp294
a(F0.76456784336123107
F67.896980787071826
I00
tp295
a(F0.76456784336123107
F67.896980787071826
I00
tp296
a(F0.76456784336123107
F67.896980787071826
I00
tp297
a(F0.76456784336123107
F67.896980787071826
I00
tp298
a(F0.76456784336123107
F67.896980787071826
I00
tp299
a(F0.76456784336123107
F67.896980787071826
I00
tp300
a(F0.76456784336123107
F67.896980787071826
I00
tp301
a(F0.76456784336123107
F67.896980787071826
I00
tp302
a(F0.76456784336123107
F67.896980787071826
I00
tp303
a(F-0.24864232989594637
F77.025969646606853
I00
tp304
a(F-0.42851991510185172
F194.74342094150447
I00
tp305
a(F-0.0031896758624037069
F154.54772725601629
I00
tp306
a(F0.007959115055432342
F119.50732195141852
I00
tp307
a(F-0.029756227560504112
F96.187317251288391
I00
tp308
a(F0.0088886547893327617
F56.142675390472796
I00
tp309
a(F-0.13372627478124777
F16.031219541881399
I00
tp310
a(F-3.048508612666887
F163.07666908543356
I00
tp311
a(F-2.1347061598159076
F195.02820308868152
I00
tp312
a(F-1.2889872355398815
F180.27756377319946
I00
tp313
a(F-0.31285201286000053
F141.87318280774559
I00
tp314
a(F0.0038716620707086591
F101.95096860746347
I00
tp315
a(F-0.012128355171743266
F61.465437442517235
I00
tp316
a(F0.0030211388446268472
F21.540659228538015
I00
tp317
a(F-2.7540933834720951
F143.00349646075091
I00
tp318
a(F-2.3717773304630407
F27.802877548915689
I00
tp319
a(F-2.23748750087913
F17
I00
tp320
a(F-1.2899586021736946
F10.04987562112089
I00
tp321
a(F1.4277039283089614
F124
I00
tp322
a(F0.55124158858764671
F88.283633817372973
I00
tp323
a(F2.8686507240072565
F78.409183135650636
I00
tp324
a(F1.9345290280951826
F92.005434622091755
I00
tp325
a(F0.89138660471139985
F67.007462271003817
I00
tp326
a(F-0.014924264990085589
F27
I00
tp327
a(F-3.1415926535897922
F126
I00
tp328
a(F-2.7988891666354125
F26.248809496813376
I00
tp329
a(F-2.2273868342938075
F18.384776310850235
I00
tp330
a(F-1.6295521495106193
F17.029386365926403
I00
tp331
a(F1.039067649016653
F123.00406497347964
I00
tp332
a(F-0.011867431793206151
F100.01999800039989
I00
tp333
a(F0.0033322102592099334
F60.00833275470999
I00
tp334
a(F1.5303806681025725
F35.057096285916209
I00
tp335
a(F1.8081753577321642
F16.763054614240211
I00
tp336
a(F2.2999221643886205
F24.351591323771842
I00
tp337
a(F1.5874614505088376
F24
I00
tp338
a(F0.58190647841082832
F24.020824298928627
I00
tp339
a(F2.5875606141804672
F55.072679252057455
I00
tp340
a(F1.7701975708250206
F32.280024783137947
I00
tp341
a(F2.4237019704976417
F13.152946437965905
I00
tp342
a(F3.0999500744912059
F12
I00
tp343
a(F-2.6688105116351912
F109.00458705944443
I00
tp344
a(F-1.6214476711839008
F111.00450441310929
I00
tp345
a(F-0.57822763761705875
F77.006493232713822
I00
tp346
a(F0.012986282920172343
F37
I00
tp347
a(F-3.1415926535897931
F126
I00
tp348
a(F-2.22380481378881
F147.23111084278349
I00
tp349
a(F-1.2997518269746582
F128.06248474865697
I00
tp350
a(F-0.36397895650964429
F89.888820216976924
I00
tp351
a(F-0.0090087652904173865
F49.396356140913873
I00
tp352
a(F-0.41241044159738749
F14.142135623730951
I00
tp353
a(F-2.4360244759045822
F50.159744815937813
I00
tp354
a(F2.686380221581997
F51.739733281106119
I00
tp355
a(F2.2827971642907334
F68.183575734923139
I00
tp356
a(F1.2389363563572919
F57.140178508646613
I00
tp357
a(F0.054303161363947083
F19.416487838947599
I00
tp358
a(F-1.6082787634865578
F12.369316876852981
I00
tp359
a(F-1.8037576440695515
F12.041594578792296
I00
tp360
a(F-2.5348526461030532
F16.124515496597098
I00
tp361
a(F-2.710619826013958
F22.561028345356956
I00
tp362
aa(lp363
(F0.35877067027057219
F136.70405992508049
I00
tp364
a(F-0.064790752467350998
F113.88590782006349
I00
tp365
a(F-0.24475862268488591
F203.24615617521528
I00
tp366
a(F-0.012428090971847272
F163.11039206623224
I00
tp367
a(F1.8049499729868295
F18.681541692269406
I00
tp368
a(F1.1527748088309204
F17.804493814764857
I00
tp369
a(F2.7055556683917681
F8.0622577482985491
I00
tp370
a(F3.0468932441951981
F138.23168956501979
I00
tp371
a(F2.178035344268709
F158.14550262337528
I00
tp372
a(F1.1574827024385135
F136.4734406395618
I00
tp373
a(F0.15046071558699614
F96.690227013902501
I00
tp374
a(F0.00670522752641034
F57.070132293521098
I00
tp375
a(F-0.019286948251653335
F17.262676501632068
I00
tp376
a(F1.4601391056210007
F78.160092118676531
I00
tp377
a(F0.84286794550963995
F44.294469180700204
I00
tp378
a(F1.0686246910374511
F243.00823031329617
I00
tp379
a(F0.034583475207140779
F203.00246303924493
I00
tp380
a(F-0.0049260685284231442
F163
I00
tp381
a(F8.8817841970012523e-16
F123
I00
tp382
a(F0
F83
I00
tp383
a(F0
F43
I00
tp384
a(F-3.0584514217013519
F204.70710783946902
I00
tp385
a(F-2.0988593584503259
F224.0022321317357
I00
tp386
a(F-1.0520994727180475
F204.00245096566854
I00
tp387
a(F-0.0060974854076829565
F164.00304875214974
I00
tp388
a(F-0.10877912000921697
F157.0350279396288
I00
tp389
a(F-0.0052321301500137807
F116.84177335182824
I00
tp390
a(F0.0037535703600379833
F77.52418977325722
I00
tp391
a(F0.16893822681781678
F19.026297590440446
I01
tp392
a(F-0.32352991194936243
F18.681541692269406
I00
tp393
a(F-1.0878918392138566
F80.808415403347695
I00
tp394
a(F-0.08355069925850156
F41.593268686170845
I00
tp395
a(F0.85184191811693477
F36.359317925395686
I01
tp396
a(F0.44501622475554115
F72.013887549555335
I00
tp397
a(F0.44501622475554115
F72.013887549555335
I00
tp398
a(F0.44501622475554115
F72.013887549555335
I00
tp399
a(F0.44501622475554115
F72.013887549555335
I00
tp400
a(F0.44501622475554115
F72.013887549555335
I00
tp401
a(F0.44501622475554115
F72.013887549555335
I00
tp402
a(F0.44501622475554115
F72.013887549555335
I00
tp403
a(F0.44501622475554115
F72.013887549555335
I00
tp404
a(F0.44501622475554115
F72.013887549555335
I00
tp405
a(F0.44501622475554115
F72.013887549555335
I00
tp406
a(F0.44501622475554115
F72.013887549555335
I00
tp407
a(F-0.15946155398593254
F113.6001760562016
I00
tp408
a(F-0.18988799791378685
F198.90952717253137
I00
tp409
a(F-0.0010136522867401077
F158.71042813879623
I00
tp410
a(F-0.0017013115596649087
F118.51160280748886
I00
tp411
a(F-0.003447890657806596
F78.313472659562223
I00
tp412
a(F3.0061441794300627
F87.091905479212016
I00
tp413
a(F2.0145063723412875
F104.00480758118829
I00
tp414
a(F0.97003878468921201
F81.006172604314543
I00
tp415
a(F-0.012345051844224741
F41
I00
tp416
a(F-1.4382447944982215
F15.132745950421556
I00
tp417
a(F3.0504016535620329
F14.317821063276353
I00
tp418
a(F2.5872851573882425
F24.698178070456937
I00
tp419
a(F2.1446671743909249
F159.20113064925135
I00
tp420
a(F1.1830462924583909
F140.29255147726127
I00
tp421
a(F0.19933730498232594
F101
I00
tp422
a(F-0.0019417451324432733
F61.188234163113421
I00
tp423
a(F-0.0091740545451099997
F21.377558326431949
I00
tp424
a(F-0.18822150530477089
F50
I01
tp425
a(F1.730269696243556
F144.83784035948617
I00
tp426
a(F0.82859112241270383
F113.22543883774529
I00
tp427
a(F-0.013535552336537915
F73.082145562373853
I00
tp428
a(F0.011428073897104873
F33.526109228480422
I00
tp429
a(F3.0655066332687078
F146.75830470538966
I00
tp430
a(F2.2338844569949687
F168.19036833302911
I00
tp431
a(F1.33792270423237
F148.38463532320318
I00
tp432
a(F0.9598586773961495
F23.086792761230392
I00
tp433
a(F-0.69270308207140996
F92.649878575203758
I00
tp434
a(F-0.0033112461762039302
F52.153619241621193
I00
tp435
a(F0.043996746865702097
F12.206555615733702
I00
tp436
a(F0.79492168499106119
F12.165525060596439
I01
tp437
a(F0.44501622475554115
F72.013887549555335
I00
tp438
a(F0.44501622475554115
F72.013887549555335
I00
tp439
a(F0.44501622475554115
F72.013887549555335
I00
tp440
a(F0.44501622475554115
F72.013887549555335
I00
tp441
a(F0.44501622475554115
F72.013887549555335
I00
tp442
a(F0.44501622475554115
F72.013887549555335
I00
tp443
a(F0.44501622475554115
F72.013887549555335
I00
tp444
a(F0.44501622475554115
F72.013887549555335
I00
tp445
a(F0.44501622475554115
F72.013887549555335
I00
tp446
a(F0.44501622475554115
F72.013887549555335
I00
tp447
a(F0.44501622475554115
F72.013887549555335
I00
tp448
a(F-0.15946155398593254
F113.6001760562016
I00
tp449
a(F-0.18988799791378685
F198.90952717253137
I00
tp450
a(F-0.0010136522867401077
F158.71042813879623
I00
tp451
a(F1.8093876073374879
F27.513632984395208
I00
tp452
a(F2.0523251434350556
F19.026297590440446
I00
tp453
a(F-0.046914316333753092
F16.643316977093239
I00
tp454
a(F2.7676507336060467
F10.198039027185569
I00
tp455
a(F2.4503528405611812
F15
I00
tp456
a(F2.0742356105576087
F145.05516192124981
I00
tp457
a(F1.3009076224986948
F124.61942063739504
I00
tp458
a(F0.29264323440658035
F101.84301645179212
I00
tp459
a(F0.0070040242764126681
F61.684682053164543
I00
tp460
a(F0.057505823366763575
F22.847319317591726
I00
tp461
a(F-0.37696608689247091
F179.06981878585793
I00
tp462
a(F0.06392042687212518
F152.64337522473747
I00
tp463
a(F-0.002796543630239956
F112.44554237496477
I00
tp464
a(F-0.0059083507460564455
F72.249567472753768
I00
tp465
a(F-0.34939328103936651
F11.401754250991379
I01
tp466
a(F-2.9606034738793969
F117.42657280190033
I00
tp467
a(F-2.1963717389899156
F136.12494260788506
I00
tp468
a(F-1.3806298171834772
F118.71394189394942
I00
tp469
a(F-0.49351070572484579
F82.758685344802331
I00
tp470
a(F0.0076855873565699895
F42.449970553582247
I00
tp471
a(F-0.58839742695324171
F148.93287078412206
I00
tp472
a(F0.0012946971804144169
F108.90821823902914
I00
tp473
a(F0.0027992462209431856
F68.8839603971781
I00
tp474
a(F0.42285392613294004
F116.21101496846157
I00
tp475
a(F-0.011150697996149539
F76.400261779656233
I00
tp476
a(F0.0028766551358989645
F36.400549446402593
I00
tp477
a(F-3.0051900491888457
F90.509667991878089
I00
tp478
a(F-2.1145943749742635
F81.60882305241266
I00
tp479
a(F-0.14812014423984365
F88.022724338661547
I00
tp480
a(F0.0018930408054238512
F48.010415536631214
I00
tp481
a(F-1.9560232936815283
F225.32199182503248
I00
tp482
a(F-2.1120073723781658
F26.019223662515376
I00
tp483
a(F-0.1582315500229261
F145.45446022724775
I00
tp484
a(F0.31904224539641923
F179.0111728356641
I00
tp485
a(F0.00044180252567693756
F139.08630414242805
I00
tp486
a(F0.00079756363599248203
F99.161484458432753
I00
tp487
a(F-0.21238022338399976
F41.048751503547585
I01
tp488
a(F1.751048709693463
F54.626001134990652
I00
tp489
a(F1.1920877781516062
F176.47946056127893
I00
tp490
a(F0.18826922645191857
F136.93794214898952
I00
tp491
a(F2.599278890043311
F58.180752831155424
I00
tp492
a(F-1.1801779787552515
F63.007936008093459
I00
tp493
a(F-0.16055963995839484
F23.021728866442675
I00
tp494
a(F-3.0150005263098212
F12.041594578792296
I00
tp495
a(F2.9397444323881361
F21.840329667841555
I00
tp496
a(F2.0371011483193682
F21.931712199461309
I00
tp497
a(F2.1438700213008968
F166.00301202086666
I00
tp498
a(F1.6208642193647584
F33.61547262794322
I00
tp499
a(F1.0825231549276229
F19.723082923316021
I00
tp500
a(F-1.0116205088291661
F127.00393694685216
I00
tp501
a(F0.0078738530241002636
F87
I00
tp502
a(F0
F47
I00
tp503
a(F-1.4930313871921639
F77.233412458598508
I00
tp504
a(F2.1658400157057187
F38.910152916687437
I00
tp505
a(F2.0458070830599935
F39.357337308308857
I00
tp506
a(F2.0943951023931957
F25
I00
tp507
a(F0.44501622475554115
F72.013887549555335
I00
tp508
a(F0.44501622475554115
F72.013887549555335
I00
tp509
a(F0.44501622475554115
F72.013887549555335
I00
tp510
a(F0.44501622475554115
F72.013887549555335
I00
tp511
a(F0.44501622475554115
F72.013887549555335
I00
tp512
a(F0.44501622475554115
F72.013887549555335
I00
tp513
aasS'version'
p514
S'1.6.2'
p515
sS'actions_blue'
p516
(lp517
(lp518
(F-0.76456784336123107
F67.896980787071826
I00
tp519
a(F0.21728346237379403
F74.94664769020693
I00
tp520
a(F0.10117883204403322
F76.485292703891773
I00
tp521
a(F-0.094313951327180234
F34.985711369071801
I00
tp522
a(F2.2638651554607456
F13.152946437965905
I00
tp523
a(F-0.47453116849075938
F124.06449935416659
I00
tp524
a(F-0.03224688243525442
F85
I00
tp525
a(F0
F45
I00
tp526
a(F0.045423279421576979
F44.045431091090478
I01
tp527
a(F-0.045423279421576979
F12
I01
tp528
a(F-0.76456784336123107
F67.896980787071826
I00
tp529
a(F-0.76456784336123107
F67.896980787071826
I00
tp530
a(F-0.76456784336123107
F67.896980787071826
I00
tp531
a(F-0.76456784336123107
F67.896980787071826
I00
tp532
a(F-0.76456784336123107
F67.896980787071826
I00
tp533
a(F-0.76456784336123107
F67.896980787071826
I00
tp534
a(F-0.76456784336123107
F67.896980787071826
I00
tp535
a(F-0.76456784336123107
F67.896980787071826
I00
tp536
a(F-0.76456784336123107
F67.896980787071826
I00
tp537
a(F-0.76456784336123107
F67.896980787071826
I00
tp538
a(F-0.79592409042917467
F67.178865724273734
I00
tp539
a(F-0.015109481489950838
F27.586228448267445
I00
tp540
a(F0.73912387896213572
F236.61149591682988
I00
tp541
a(F0.0009629785167999394
F197.49683541768459
I00
tp542
a(F-1.4998496123547067
F27
I00
tp543
a(F-1.118621298537219
F17.804493814764857
I00
tp544
a(F-2.6577043847252009
F9.0553851381374173
I00
tp545
a(F-2.3959049969260517
F12.806248474865697
I00
tp546
a(F-2.0324033724539738
F335.01343256651666
I00
tp547
a(F-1.0797755112669538
F309.65787572739049
I00
tp548
a(F-0.036842837413035845
F269.56446353330773
I00
tp549
a(F0.0029126131229899599
F229.25967809451359
I00
tp550
a(F-0.44497624394635071
F36.359317925395686
I01
tp551
a(F-0.76456784336123107
F67.896980787071826
I00
tp552
a(F-0.76456784336123107
F67.896980787071826
I00
tp553
a(F-0.76456784336123107
F67.896980787071826
I00
tp554
a(F-0.76456784336123107
F67.896980787071826
I00
tp555
a(F-0.76456784336123107
F67.896980787071826
I00
tp556
a(F-0.76456784336123107
F67.896980787071826
I00
tp557
a(F-0.76456784336123107
F67.896980787071826
I00
tp558
a(F-0.76456784336123107
F67.896980787071826
I00
tp559
a(F-0.76456784336123107
F67.896980787071826
I00
tp560
a(F-0.76456784336123107
F67.896980787071826
I00
tp561
a(F-0.76456784336123107
F67.896980787071826
I00
tp562
a(F-0.020830320036217209
F28.284271247461902
I00
tp563
a(F0.38970857134286607
F85.615419172015976
I00
tp564
a(F0.011084877232368839
F45.310043036836767
I00
tp565
a(F1.5187738818035683
F16.552945357246848
I00
tp566
a(F-0.63008396809236045
F123.06502346320826
I00
tp567
a(F-0.032508868282024039
F84
I00
tp568
a(F0
F44
I00
tp569
a(F-1.5195591593914779
F78.10249675906654
I00
tp570
a(F2.1658400157057187
F38.910152916687437
I00
tp571
a(F2.0458070830599935
F39.357337308308857
I00
tp572
a(F2.0489718229716187
F22.022715545545239
I00
tp573
a(F-0.76456784336123107
F67.896980787071826
I00
tp574
a(F-0.76456784336123107
F67.896980787071826
I00
tp575
a(F-0.76456784336123107
F67.896980787071826
I00
tp576
a(F-0.76456784336123107
F67.896980787071826
I00
tp577
a(F-0.76456784336123107
F67.896980787071826
I00
tp578
a(F-0.76456784336123107
F67.896980787071826
I00
tp579
a(F-0.76456784336123107
F67.896980787071826
I00
tp580
a(F-0.76456784336123107
F67.896980787071826
I00
tp581
a(F-0.76456784336123107
F67.896980787071826
I00
tp582
a(F-0.76456784336123107
F67.896980787071826
I00
tp583
a(F-0.76456784336123107
F67.896980787071826
I00
tp584
a(F-0.020830320036217209
F28.284271247461902
I00
tp585
a(F0.38970857134286607
F85.615419172015976
I00
tp586
a(F0.011084877232368839
F45.310043036836767
I00
tp587
a(F1.5229932660465719
F14.317821063276353
I00
tp588
a(F-0.63820742720166557
F123.03657992645927
I00
tp589
a(F-0.024385409172719363
F83
I00
tp590
a(F8.8817841970012523e-16
F43
I00
tp591
a(F-0.1651486774146278
F12.165525060596439
I01
tp592
a(F-0.76456784336123107
F67.896980787071826
I00
tp593
a(F-0.76456784336123107
F67.896980787071826
I00
tp594
a(F-0.76456784336123107
F67.896980787071826
I00
tp595
a(F-0.76456784336123107
F67.896980787071826
I00
tp596
a(F-0.76456784336123107
F67.896980787071826
I00
tp597
a(F-0.76456784336123107
F67.896980787071826
I00
tp598
a(F-0.76456784336123107
F67.896980787071826
I00
tp599
a(F-0.76456784336123107
F67.896980787071826
I00
tp600
a(F-0.76456784336123107
F67.896980787071826
I00
tp601
a(F-0.76456784336123107
F67.896980787071826
I00
tp602
a(F-0.76456784336123107
F67.896980787071826
I00
tp603
a(F-0.020830320036217209
F28.284271247461902
I00
tp604
a(F0.69824088884316504
F206.7849124090053
I00
tp605
a(F0.0030190340231119883
F166.5893153836704
I00
tp606
a(F-0.76456784336123107
F67.896980787071826
I00
tp607
a(F-0.76456784336123107
F67.896980787071826
I00
tp608
a(F-0.76456784336123107
F67.896980787071826
I00
tp609
a(F-0.80622848343366549
F67.896980787071826
I00
tp610
a(F-0.80622848343366549
F67.896980787071826
I00
tp611
a(F-0.80622848343366549
F67.896980787071826
I00
tp612
a(F-0.80622848343366549
F67.896980787071826
I00
tp613
a(F-0.80622848343366549
F67.896980787071826
I00
tp614
a(F-0.80622848343366549
F67.896980787071826
I00
tp615
a(F-0.80622848343366549
F67.896980787071826
I00
tp616
a(F-0.80622848343366549
F67.896980787071826
I00
tp617
a(F0.2771980123540172
F75.292761936324268
I00
tp618
a(F0.44631805563147564
F193.66207682455541
I00
tp619
a(F0.0044412749268949447
F153.46986674914396
I00
tp620
a(F-0.0069917289192522603
F117.42657280190033
I00
tp621
a(F-0.76456784336123107
F67.896980787071826
I00
tp622
a(F-0.76456784336123107
F67.896980787071826
I00
tp623
a(F-0.80622848343366549
F67.896980787071826
I00
tp624
a(F-0.80622848343366549
F67.896980787071826
I00
tp625
a(F-0.80622848343366549
F67.896980787071826
I00
tp626
a(F-0.80622848343366549
F67.896980787071826
I00
tp627
a(F-0.80622848343366549
F67.896980787071826
I00
tp628
a(F-0.80622848343366549
F67.896980787071826
I00
tp629
a(F-0.80622848343366549
F67.896980787071826
I00
tp630
a(F-0.80622848343366549
F67.896980787071826
I00
tp631
a(F-0.80622848343366549
F67.896980787071826
I00
tp632
a(F0.2771980123540172
F75.292761936324268
I00
tp633
a(F0.44631805563147564
F193.66207682455541
I00
tp634
a(F0.0044412749268949447
F153.46986674914396
I00
tp635
a(F-0.001207104086929256
F113.35784048754634
I00
tp636
a(F0.032343370794706061
F106.1178590059185
I00
tp637
a(F0.0017115943919234766
F66.068146636635717
I00
tp638
a(F0.0069806894003892062
F26.019223662515376
I00
tp639
a(F-1.5323537367737092
F144
I00
tp640
a(F2.5993556856064171
F35.057096285916209
I00
tp641
a(F2.8771503752360088
F16.763054614240211
I00
tp642
a(F-2.9142881252871211
F24.351591323771842
I00
tp643
a(F-0.76456784336123107
F67.896980787071826
I00
tp644
a(F-0.76456784336123107
F67.896980787071826
I00
tp645
a(F-0.76456784336123107
F67.896980787071826
I00
tp646
a(F-0.76456784336123107
F67.896980787071826
I00
tp647
a(F-0.76456784336123107
F67.896980787071826
I00
tp648
a(F-0.76456784336123107
F67.896980787071826
I00
tp649
a(F-0.76456784336123107
F67.896980787071826
I00
tp650
a(F-0.76456784336123107
F67.896980787071826
I00
tp651
a(F-0.76456784336123107
F67.896980787071826
I00
tp652
a(F-0.76456784336123107
F67.896980787071826
I00
tp653
a(F-0.76456784336123107
F67.896980787071826
I00
tp654
a(F0.24216441164470259
F76.157731058639087
I00
tp655
a(F0.43454727548689398
F193.74725804511402
I00
tp656
a(F0.0030924271170165163
F153.55129436120035
I00
tp657
a(F0.0073990696846446546
F129.38701635017324
I00
tp658
a(F-0.00025684930942038164
F90.271811768680038
I00
tp659
a(F0.041492658224617784
F83.054199171384468
I00
tp660
a(F-0.010349280838227504
F43.046486500061768
I00
tp661
a(F0.046478131351003427
F25
I01
tp662
a(F-1.6408569094333521
F57.140178508646613
I00
tp663
a(F-2.1343737895164856
F25.019992006393608
I00
tp664
a(F-1.2921762143234625
F12.369316876852981
I00
tp665
a(F-1.4876550949064562
F12.041594578792296
I00
tp666
a(F-2.2187500969399583
F16.124515496597098
I00
tp667
a(F-2.3945172768508627
F22.561028345356956
I00
tp668
aa(lp669
(F-0.62604652249353121
F80.212218520621903
I00
tp670
a(F0.14821546750141712
F126.1269202034205
I00
tp671
a(F-0.016110313927466979
F88.588938361400409
I00
tp672
a(F0.047098900433816482
F53.225933528685054
I00
tp673
a(F0.49609837047008742
F142.1724305201258
I00
tp674
a(F-0.077550235832827497
F106.04244433244644
I00
tp675
a(F0.028294333848504216
F99
I00
tp676
a(F0
F59
I00
tp677
a(F0
F19
I00
tp678
a(F-0.62604652249353165
F80.212218520621903
I00
tp679
a(F-0.62604652249353165
F80.212218520621903
I00
tp680
a(F-0.62604652249353165
F80.212218520621903
I00
tp681
a(F-0.62604652249353165
F80.212218520621903
I00
tp682
a(F-0.62604652249353165
F80.212218520621903
I00
tp683
a(F-0.62604652249353165
F80.212218520621903
I00
tp684
a(F-0.62604652249353165
F80.212218520621903
I00
tp685
a(F-0.62604652249353165
F80.212218520621903
I00
tp686
a(F-0.62604652249353165
F80.212218520621903
I00
tp687
a(F-0.62604652249353165
F80.212218520621903
I00
tp688
a(F-0.62604652249353165
F80.212218520621903
I00
tp689
a(F0.017357215166120099
F40.224370722237531
I00
tp690
a(F0.53767919608673242
F239.60383970212163
I00
tp691
a(F-0.0042245022239351115
F199.56452590578317
I00
tp692
a(F0.00037476575384731703
F160.44936896105264
I00
tp693
a(F-2.8157301192359911
F40.26164427839479
I00
tp694
a(F-2.0370773147398307
F57.008771254956898
I00
tp695
a(F-1.0017409916898359
F34.014702703389901
I00
tp696
a(F-3.1090545794159761
F319.00156739426848
I00
tp697
a(F-2.118195993732682
F338.47895060106765
I00
tp698
a(F-1.105344180010615
F320.22648235272487
I00
tp699
a(F-0.063518307579692568
F280.20885068105895
I00
tp700
a(F-0.19038636859175728
F82.28000972289685
I00
tp701
a(F-0.001422474147258157
F42.720018726587654
I00
tp702
a(F0.29071839090662532
F167.00299398513789
I00
tp703
a(F0.0018859006401870104
F127.00393694685216
I00
tp704
a(F-0.62604652249353165
F80.212218520621903
I00
tp705
a(F-0.62604652249353165
F80.212218520621903
I00
tp706
a(F-0.62604652249353165
F80.212218520621903
I00
tp707
a(F-0.62604652249353165
F80.212218520621903
I00
tp708
a(F-0.62604652249353165
F80.212218520621903
I00
tp709
a(F-0.62604652249353165
F80.212218520621903
I00
tp710
a(F-0.62604652249353165
F80.212218520621903
I00
tp711
a(F-0.62604652249353165
F80.212218520621903
I00
tp712
a(F-0.62604652249353165
F80.212218520621903
I00
tp713
a(F-0.62604652249353165
F80.212218520621903
I00
tp714
a(F-0.62604652249353165
F80.212218520621903
I00
tp715
a(F0.15164663970162451
F124.77980605851253
I00
tp716
a(F0.3621288921743604
F205.29247428973133
I00
tp717
a(F0.01618227510018011
F166.76930173146374
I00
tp718
a(F0.0011370091746099042
F126.57013865837392
I00
tp719
a(F-0.0093199055848982582
F86.469647854030256
I00
tp720
a(F0.017533273251669979
F46.173585522460783
I00
tp721
a(F0.08673833867598546
F39
I00
tp722
a(F-1.5707963267948966
F144
I00
tp723
a(F-0.67831564067536387
F110.3177229641729
I00
tp724
a(F-0.0011513363212576344
F70.859014952227497
I00
tp725
a(F-1.2350746256040963
F33.541019662496844
I00
tp726
a(F-0.52975323811951291
F128.63125592172378
I00
tp727
a(F-0.52975323811951291
F128.63125592172378
I00
tp728
a(F-0.52975323811951291
F128.63125592172378
I00
tp729
a(F-0.52975323811951291
F128.63125592172378
I00
tp730
a(F-0.52975323811951291
F128.63125592172378
I00
tp731
a(F-0.52975323811951291
F128.63125592172378
I00
tp732
a(F-0.52975323811951291
F128.63125592172378
I00
tp733
a(F-0.52975323811951291
F128.63125592172378
I00
tp734
a(F-0.52975323811951291
F128.63125592172378
I00
tp735
a(F-0.52975323811951291
F128.63125592172378
I00
tp736
a(F-0.52975323811951291
F128.63125592172378
I00
tp737
a(F0.026557914530147997
F124.42266674525185
I00
tp738
a(F0.18524703223807348
F83.168503653726987
I00
tp739
a(F0.25953528658580005
F171.29214809792072
I00
tp740
a(F-0.0025799506834420782
F131.24404748406687
I00
tp741
a(F-0.0048458138537608164
F91.197587687394446
I00
tp742
a(F0.042033743117623867
F84.02380615040002
I00
tp743
a(F0.0010816653434284618
F44.011362169330773
I00
tp744
a(F-1.5203023293598343
F144.05554484295286
I00
tp745
a(F-0.63763112648756248
F110.02726934719411
I00
tp746
a(F0.00705317457499266
F69.584481028459209
I00
tp747
a(F-0.0028489951407619785
F30.265491900843113
I00
tp748
a(F0.13255153229667371
F12
I01
tp749
a(F-0.52975323811951291
F128.63125592172378
I00
tp750
a(F-0.52975323811951291
F128.63125592172378
I00
tp751
a(F-0.52975323811951291
F128.63125592172378
I00
tp752
a(F-0.52975323811951291
F128.63125592172378
I00
tp753
a(F-0.52975323811951291
F128.63125592172378
I00
tp754
a(F-0.52975323811951291
F128.63125592172378
I00
tp755
a(F-0.52975323811951291
F128.63125592172378
I00
tp756
a(F-0.52975323811951291
F128.63125592172378
I00
tp757
a(F-0.52975323811951291
F128.63125592172378
I00
tp758
a(F-0.52975323811951291
F128.63125592172378
I00
tp759
a(F-0.52975323811951291
F128.63125592172378
I00
tp760
a(F0.041199748098467825
F125.70600622086441
I00
tp761
a(F0.0094431959606540161
F86.769810418140253
I00
tp762
a(F0.052482800933515428
F48.332183894378289
I00
tp763
a(F-0.50709850439233684
F164.73008225579201
I00
tp764
a(F-0.50709850439233684
F164.73008225579201
I00
tp765
a(F-0.50709850439233684
F164.73008225579201
I00
tp766
a(F-0.50709850439233684
F164.73008225579201
I00
tp767
a(F-0.50709850439233684
F164.73008225579201
I00
tp768
a(F-0.50709850439233684
F164.73008225579201
I00
tp769
a(F-0.50709850439233684
F164.73008225579201
I00
tp770
a(F-0.50709850439233684
F164.73008225579201
I00
tp771
a(F-0.50709850439233684
F164.73008225579201
I00
tp772
a(F-0.50709850439233684
F164.73008225579201
I00
tp773
a(F-0.50709850439233684
F164.73008225579201
I00
tp774
a(F0.0077517827122068894
F125.29964086141668
I00
tp775
a(F0.18139843032883851
F83.168503653726987
I00
tp776
a(F0.25953528658580005
F171.29214809792072
I00
tp777
a(F-0.0025799506834420782
F131.24404748406687
I00
tp778
a(F0.0061030928547793906
F91.13725912051558
I00
tp779
a(F-0.0038659601215691453
F51.088159097779204
I00
tp780
a(F-0.031904064485022143
F11.045361017187261
I00
tp781
a(F-1.5579013791968834
F77.233412458598508
I00
tp782
a(F-0.94416960067534328
F47.010637094172637
I00
tp783
a(F-1.0395682805439561
F250.04999500099976
I00
tp784
a(F-0.0058473350351437858
F212.02122535255756
I00
tp785
a(F-0.0025226159816229554
F172.01162751395617
I00
tp786
a(F0.0035229729183861025
F132.015150645674
I00
tp787
a(F-0.0042812186974998667
F92.005434622091755
I00
tp788
a(F3.1307235164125231
F187
I00
tp789
a(F2.1750569323357238
F207.87015177749788
I00
tp790
a(F1.2337239738692087
F188.66372200293304
I00
tp791
a(F0.46414161908782781
F39.357337308308857
I00
tp792
a(F-0.31281192280171455
F111.46299834474219
I00
tp793
a(F0.0052329450071404437
F72.006944109578768
I00
tp794
a(F0.061800154806472385
F30.805843601498726
I00
tp795
a(F1.4024646017958897
F82.152297594163485
I00
tp796
a(F0.74120931080706765
F53.225933528685054
I00
tp797
a(F0.016805140515042005
F13.416407864998739
I00
tp798
a(F1.1071487177940904
F126
I00
tp799
a(F0.16951069337143743
F100.60318086422517
I00
tp800
a(F-0.50709850439233684
F164.73008225579201
I00
tp801
a(F-0.50709850439233684
F164.73008225579201
I00
tp802
a(F-0.50709850439233684
F164.73008225579201
I00
tp803
a(F-0.50709850439233684
F164.73008225579201
I00
tp804
a(F-0.50709850439233684
F164.73008225579201
I00
tp805
a(F-0.50709850439233684
F164.73008225579201
I00
tp806
a(F-0.50709850439233684
F164.73008225579201
I00
tp807
a(F-0.50709850439233684
F164.73008225579201
I00
tp808
a(F-0.50709850439233684
F164.73008225579201
I00
tp809
a(F-0.50709850439233684
F164.73008225579201
I00
tp810
a(F-0.50709850439233684
F164.73008225579201
I00
tp811
a(F-0.037181980553643079
F88.836929258051242
I00
tp812
a(F0.42233948691711731
F205.526154053444
I00
tp813
a(F0.0280997853995264
F170.75128110793196
I00
tp814
a(F0.03421049949816668
F134.23859355639868
I00
tp815
a(F0.0064893042862332884
F94.132884795909661
I00
tp816
a(F-0.0023570964007819661
F54.083269131959838
I00
tp817
a(F-0.52975323811951291
F128.63125592172378
I00
tp818
a(F-0.52975323811951291
F128.63125592172378
I00
tp819
aa(lp820
(F-0.35877067027057219
F136.70405992508049
I00
tp821
a(F-0.062916848926328317
F117.27318534089538
I00
tp822
a(F0.096045933853614596
F81.271151093115449
I00
tp823
a(F-0.003408109497053502
F43.324358044868937
I00
tp824
a(F1.4129467898239669
F19.235384061671343
I00
tp825
a(F0.55414953885245932
F13.601470508735444
I00
tp826
a(F-1.2722973952087173
F126
I00
tp827
a(F-0.3167960002719834
F87.367041840730764
I00
tp828
a(F-0.014288201729736105
F47.265209192385896
I00
tp829
a(F-1.3764351826604477
F79.309520235593411
I00
tp830
a(F-0.6782168093560399
F46.572524088780071
I00
tp831
a(F-1.2768729391693086
F240.13329631685815
I00
tp832
a(F-0.28750128161194777
F204.06126531020041
I00
tp833
a(F0.00011948858827093289
F164.04877323527901
I00
tp834
a(F0.00019657951388207806
F124.03628501370073
I00
tp835
a(F0.00038380347376643087
F84.02380615040002
I00
tp836
a(F0.0010816653434289059
F44.011362169330773
I00
tp837
a(F3.0807671184807823
F203.71057900855322
I00
tp838
a(F2.1215827192919665
F224.0022321317357
I00
tp839
a(F1.0748228335596881
F204.00245096566854
I00
tp840
a(F0.028820846249324461
F164.00304875214974
I00
tp841
a(F0.0019668558990844076
F124.00403219250575
I00
tp842
a(F0.0038398582515428714
F84.005952170069477
I00
tp843
a(F-0.011904199558308903
F44
I00
tp844
a(F-0.59796905095377539
F83.486525858967212
I00
tp845
a(F0.0099664474062071129
F43.266615305567875
I00
tp846
a(F2.0178949240712534
F142.41137595009747
I00
tp847
a(F1.4532168697936729
F47.75981574503821
I00
tp848
a(F1.3642533044057448
F18.681541692269406
I00
tp849
a(F-0.44501622475554115
F72.013887549555335
I00
tp850
a(F-0.44501622475554115
F72.013887549555335
I00
tp851
a(F-0.44501622475554115
F72.013887549555335
I00
tp852
a(F-0.44501622475554115
F72.013887549555335
I00
tp853
a(F-0.44501622475554115
F72.013887549555335
I00
tp854
a(F-0.44501622475554115
F72.013887549555335
I00
tp855
a(F-0.44501622475554115
F72.013887549555335
I00
tp856
a(F-0.44501622475554115
F72.013887549555335
I00
tp857
a(F-0.44501622475554115
F72.013887549555335
I00
tp858
a(F-0.44501622475554115
F72.013887549555335
I00
tp859
a(F-0.44501622475554115
F72.013887549555335
I00
tp860
a(F0.15696077770491534
F112.64102272262978
I00
tp861
a(F0.19190613649000765
F197.91412279066898
I00
tp862
a(F0.00089703314185118899
F157.71493271088823
I00
tp863
a(F0.046510426108834935
F123.14625451064275
I00
tp864
a(F-0.32588276228209523
F153.05554547287727
I00
tp865
a(F-0.32588276228209523
F153.05554547287727
I00
tp866
a(F-0.32588276228209523
F153.05554547287727
I00
tp867
a(F-0.32588276228209523
F153.05554547287727
I00
tp868
a(F-0.32588276228209523
F153.05554547287727
I00
tp869
a(F-0.32588276228209523
F153.05554547287727
I00
tp870
a(F-0.32588276228209523
F153.05554547287727
I00
tp871
a(F-0.32588276228209523
F153.05554547287727
I00
tp872
a(F-0.32588276228209523
F153.05554547287727
I00
tp873
a(F-0.32588276228209523
F153.05554547287727
I00
tp874
a(F-0.32588276228209523
F153.05554547287727
I00
tp875
a(F-0.14322927320319856
F81.841309862440497
I00
tp876
a(F0.37296272492467564
F197.91412279066898
I00
tp877
a(F0.00089703314185118899
F157.71493271088823
I00
tp878
a(F0.0015107358745183319
F117.51595636338071
I00
tp879
a(F0.0030816543435032706
F77.317527120310828
I00
tp880
a(F-0.0142170515294886
F38.209946349085598
I00
tp881
a(F-1.4659193880646626
F78
I00
tp882
a(F-0.32588276228209523
F153.05554547287727
I00
tp883
a(F-0.32588276228209523
F153.05554547287727
I00
tp884
a(F-0.32588276228209523
F153.05554547287727
I00
tp885
a(F-0.32588276228209523
F153.05554547287727
I00
tp886
a(F-0.32588276228209523
F153.05554547287727
I00
tp887
a(F-0.32588276228209523
F153.05554547287727
I00
tp888
a(F-0.32588276228209523
F153.05554547287727
I00
tp889
a(F-0.32588276228209523
F153.05554547287727
I00
tp890
a(F-0.32588276228209523
F153.05554547287727
I00
tp891
a(F-0.32588276228209523
F153.05554547287727
I00
tp892
a(F-0.32588276228209523
F153.05554547287727
I00
tp893
a(F-0.14322927320319856
F81.841309862440497
I00
tp894
a(F0.37296272492467564
F197.91412279066898
I00
tp895
a(F0.00089703314185118899
F157.71493271088823
I00
tp896
a(F0.0015107358745183319
F117.51595636338071
I00
tp897
a(F0.0030816543435032706
F77.317527120310828
I00
tp898
a(F-0.0142170515294886
F38.209946349085598
I00
tp899
a(F-1.4659193880646626
F78
I00
tp900
a(F-0.81177985604999758
F44.384682042344295
I00
tp901
a(F-1.1569079875767472
F240.05207768315609
I00
tp902
a(F-0.32588276228209523
F153.05554547287727
I00
tp903
a(F-0.32588276228209523
F153.05554547287727
I00
tp904
a(F-0.32588276228209523
F153.05554547287727
I00
tp905
a(F-0.32588276228209523
F153.05554547287727
I00
tp906
a(F-0.32588276228209523
F153.05554547287727
I00
tp907
a(F-0.32588276228209523
F153.05554547287727
I00
tp908
a(F-0.32588276228209523
F153.05554547287727
I00
tp909
a(F-0.32588276228209523
F153.05554547287727
I00
tp910
a(F-0.32588276228209523
F153.05554547287727
I00
tp911
a(F-0.32588276228209523
F153.05554547287727
I00
tp912
a(F-0.32588276228209523
F153.05554547287727
I00
tp913
a(F-0.13018923406751526
F118.06777714516353
I00
tp914
a(F0.015541655733097404
F77.388629655783419
I00
tp915
a(F-0.41822432957922828
F157.58172482873766
I00
tp916
a(F-0.41822432957922828
F157.58172482873766
I00
tp917
a(F-0.41822432957922828
F157.58172482873766
I00
tp918
a(F-0.41822432957922828
F157.58172482873766
I00
tp919
a(F-0.41822432957922828
F157.58172482873766
I00
tp920
a(F-0.41822432957922828
F157.58172482873766
I00
tp921
a(F-0.41822432957922828
F157.58172482873766
I00
tp922
a(F-0.41822432957922828
F157.58172482873766
I00
tp923
a(F-0.41822432957922828
F157.58172482873766
I00
tp924
a(F-0.41822432957922828
F157.58172482873766
I00
tp925
a(F-0.41822432957922828
F157.58172482873766
I00
tp926
a(F0.1216785205095281
F112.92918134831227
I00
tp927
a(F0.20039649850908203
F197.91412279066898
I00
tp928
a(F0.00089703314185118899
F157.71493271088823
I00
tp929
a(F0.0015107358745183319
F117.51595636338071
I00
tp930
a(F0.0030816543435032706
F77.317527120310828
I00
tp931
a(F-0.017029983632075307
F37.215588131856791
I00
tp932
a(F-1.3863345646922978
F78.230428862431779
I00
tp933
a(F-0.66088756789234271
F45.354161881794269
I00
tp934
a(F-1.2964143754640272
F238.10291892372928
I00
tp935
a(F-0.31360583129996078
F200.12246250733574
I00
tp936
a(F0.0037458853982577089
F160.07810593582121
I00
tp937
a(F-0.002081162447979068
F120.06664815842908
I00
tp938
a(F-0.0041614408134140746
F80.05623023850174
I00
tp939
a(F-3.0940603040050978
F199.01004999748127
I00
tp940
a(F-2.0614997894909317
F218.0022935659164
I00
tp941
a(F-1.0148171110518511
F196.0025510038071
I00
tp942
a(F-0.0013081720633971727
F156.00320509528001
I00
tp943
a(F-0.0022103075018247154
F116.00431026474836
I00
tp944
a(F-0.0045366593606197547
F76.006578662639456
I00
tp945
a(F-0.040844364903211972
F37.054014627297811
I00
tp946
a(F1.5591030256183993
F76.164296097318456
I00
tp947
a(F0.88464600799305781
F43.011626335213137
I00
tp948
a(F1.248003864926237
F127.01574705523721
I00
tp949
a(F0.28462950183750779
F88.204308284799779
I00
tp950
a(F0.015064773630441675
F48.166378315169183
I00
tp951
a(F0.88536774877149149
F19.416487838947599
I00
tp952
a(F-1.601257815662116
F18.601075237738275
I00
tp953
a(F-1.9103320858374611
F9.8488578017961039
I00
tp954
a(F-0.35877067027057308
F136.70405992508049
I00
tp955
a(F-0.35877067027057308
F136.70405992508049
I00
tp956
a(F-0.35877067027057308
F136.70405992508049
I00
tp957
a(F-0.35877067027057308
F136.70405992508049
I00
tp958
a(F-0.35877067027057308
F136.70405992508049
I00
tp959
a(F-0.35877067027057308
F136.70405992508049
I00
tp960
a(F-0.35877067027057308
F136.70405992508049
I00
tp961
a(F-0.35877067027057308
F136.70405992508049
I00
tp962
a(F-0.35877067027057308
F136.70405992508049
I00
tp963
a(F-0.35877067027057308
F136.70405992508049
I00
tp964
a(F-0.35877067027057308
F136.70405992508049
I00
tp965
a(F0.042638034298886573
F112.57886124845996
I00
tp966
a(F0.21646398348052465
F200.9975124224178
I00
tp967
a(F0.00061500607252318318
F161.7930777258409
I00
tp968
a(F0.00020332435037273555
F121.59358535712317
I00
tp969
a(F0.0004041628556330501
F81.394102980498531
I00
tp970
aasb.